	.file	"reassembler.cc"
	.text
	.section	.text._ZnwmPv,"axG",@progbits,_ZnwmPv,comdat
	.weak	_ZnwmPv
	.type	_ZnwmPv, @function
_ZnwmPv:
.LFB358:
	.cfi_startproc
	endbr64
	pushq	%rbp
	.cfi_def_cfa_offset 16
	.cfi_offset 6, -16
	movq	%rsp, %rbp
	.cfi_def_cfa_register 6
	movq	%rdi, -8(%rbp)
	movq	%rsi, -16(%rbp)
	movq	-16(%rbp), %rax
	popq	%rbp
	.cfi_def_cfa 7, 8
	ret
	.cfi_endproc
.LFE358:
	.size	_ZnwmPv, .-_ZnwmPv
	.local	_ZStL8__ioinit
	.comm	_ZStL8__ioinit,1,1
	.text
	.align 2
	.globl	_ZN11Reassembler6insertEmNSt7__cxx1112basic_stringIcSt11char_traitsIcESaIcEEEbR6Writer
	.type	_ZN11Reassembler6insertEmNSt7__cxx1112basic_stringIcSt11char_traitsIcESaIcEEEbR6Writer, @function
_ZN11Reassembler6insertEmNSt7__cxx1112basic_stringIcSt11char_traitsIcESaIcEEEbR6Writer:
.LFB3015:
	.cfi_startproc
	.cfi_personality 0x9b,DW.ref.__gxx_personality_v0
	.cfi_lsda 0x1b,.LLSDA3015
	endbr64
	pushq	%rbp
	.cfi_def_cfa_offset 16
	.cfi_offset 6, -16
	movq	%rsp, %rbp
	.cfi_def_cfa_register 6
	pushq	%rbx
	subq	$120, %rsp
	.cfi_offset 3, -24
	movq	%rdi, -88(%rbp)
	movq	%rsi, -96(%rbp)
	movq	%rdx, -104(%rbp)
	movl	%ecx, %eax
	movq	%r8, -120(%rbp)
	movb	%al, -108(%rbp)
	movq	%fs:40, %rax
	movq	%rax, -24(%rbp)
	xorl	%eax, %eax
	movq	-104(%rbp), %rax
	movq	%rax, %rdi
	call	_ZNKSt7__cxx1112basic_stringIcSt11char_traitsIcESaIcEE5emptyEv@PLT
	xorl	$1, %eax
	testb	%al, %al
	je	.L5
	movq	-104(%rbp), %rdx
	leaq	-64(%rbp), %rax
	movq	%rdx, %rsi
	movq	%rax, %rdi
.LEHB0:
	call	_ZNSt7__cxx1112basic_stringIcSt11char_traitsIcESaIcEEC1ERKS4_@PLT
.LEHE0:
	movq	-120(%rbp), %rcx
	leaq	-64(%rbp), %rdx
	movq	-96(%rbp), %rsi
	movq	-88(%rbp), %rax
	movq	%rax, %rdi
.LEHB1:
	call	_ZN11Reassembler10preprocessEmNSt7__cxx1112basic_stringIcSt11char_traitsIcESaIcEEER6Writer
.LEHE1:
	leaq	-64(%rbp), %rax
	movq	%rax, %rdi
	call	_ZNSt7__cxx1112basic_stringIcSt11char_traitsIcESaIcEED1Ev@PLT
	jmp	.L5
.L8:
	movq	-88(%rbp), %rax
	addq	$40, %rax
	movq	%rax, %rdi
	call	_ZNSt3mapImNSt7__cxx1112basic_stringIcSt11char_traitsIcESaIcEEESt4lessImESaISt4pairIKmS5_EEE5beginEv
	movq	%rax, -72(%rbp)
	leaq	-72(%rbp), %rax
	movq	%rax, %rdi
	call	_ZNKSt17_Rb_tree_iteratorISt4pairIKmNSt7__cxx1112basic_stringIcSt11char_traitsIcESaIcEEEEEptEv
	leaq	8(%rax), %rdx
	leaq	-64(%rbp), %rax
	movq	%rdx, %rsi
	movq	%rax, %rdi
.LEHB2:
	call	_ZNSt7__cxx1112basic_stringIcSt11char_traitsIcESaIcEEC1ERKS4_@PLT
.LEHE2:
	leaq	-64(%rbp), %rdx
	movq	-120(%rbp), %rax
	movq	%rdx, %rsi
	movq	%rax, %rdi
.LEHB3:
	call	_ZN6Writer4pushENSt7__cxx1112basic_stringIcSt11char_traitsIcESaIcEEE@PLT
.LEHE3:
	leaq	-64(%rbp), %rax
	movq	%rax, %rdi
	call	_ZNSt7__cxx1112basic_stringIcSt11char_traitsIcESaIcEED1Ev@PLT
	movq	-88(%rbp), %rax
	addq	$40, %rax
	movq	%rax, %rdi
	call	_ZNSt3mapImNSt7__cxx1112basic_stringIcSt11char_traitsIcESaIcEEESt4lessImESaISt4pairIKmS5_EEE5beginEv
	movq	%rax, -72(%rbp)
	leaq	-72(%rbp), %rax
	movq	%rax, %rdi
	call	_ZNKSt17_Rb_tree_iteratorISt4pairIKmNSt7__cxx1112basic_stringIcSt11char_traitsIcESaIcEEEEEptEv
	addq	$8, %rax
	movq	%rax, %rdi
	call	_ZNKSt7__cxx1112basic_stringIcSt11char_traitsIcESaIcEE4sizeEv@PLT
	movq	%rax, %rcx
	movq	-88(%rbp), %rax
	movq	16(%rax), %rax
	subq	%rcx, %rax
	movq	%rax, %rdx
	movq	-88(%rbp), %rax
	movq	%rdx, 16(%rax)
	movq	-120(%rbp), %rax
	movq	%rax, %rdi
.LEHB4:
	call	_ZNK6Writer12bytes_pushedEv@PLT
	movq	-88(%rbp), %rdx
	movq	%rax, (%rdx)
	movq	-88(%rbp), %rax
	leaq	40(%rax), %rbx
	movq	-88(%rbp), %rax
	addq	$40, %rax
	movq	%rax, %rdi
	call	_ZNSt3mapImNSt7__cxx1112basic_stringIcSt11char_traitsIcESaIcEEESt4lessImESaISt4pairIKmS5_EEE5beginEv
	movq	%rax, %rsi
	movq	%rbx, %rdi
	call	_ZNSt3mapImNSt7__cxx1112basic_stringIcSt11char_traitsIcESaIcEEESt4lessImESaISt4pairIKmS5_EEE5eraseB5cxx11ESt17_Rb_tree_iteratorISA_E
.L5:
	movq	-88(%rbp), %rax
	addq	$40, %rax
	movq	%rax, %rdi
	call	_ZNKSt3mapImNSt7__cxx1112basic_stringIcSt11char_traitsIcESaIcEEESt4lessImESaISt4pairIKmS5_EEE5emptyEv
	xorl	$1, %eax
	testb	%al, %al
	je	.L6
	movq	-88(%rbp), %rax
	addq	$40, %rax
	movq	%rax, %rdi
	call	_ZNSt3mapImNSt7__cxx1112basic_stringIcSt11char_traitsIcESaIcEEESt4lessImESaISt4pairIKmS5_EEE5beginEv
	movq	%rax, -72(%rbp)
	leaq	-72(%rbp), %rax
	movq	%rax, %rdi
	call	_ZNKSt17_Rb_tree_iteratorISt4pairIKmNSt7__cxx1112basic_stringIcSt11char_traitsIcESaIcEEEEEptEv
	movq	(%rax), %rdx
	movq	-88(%rbp), %rax
	movq	(%rax), %rax
	cmpq	%rax, %rdx
	jne	.L6
	movl	$1, %eax
	jmp	.L7
.L6:
	movl	$0, %eax
.L7:
	testb	%al, %al
	jne	.L8
	cmpb	$0, -108(%rbp)
	je	.L9
	movq	-88(%rbp), %rax
	movb	$1, 24(%rax)
	movq	-104(%rbp), %rax
	movq	%rax, %rdi
	call	_ZNKSt7__cxx1112basic_stringIcSt11char_traitsIcESaIcEE4sizeEv@PLT
	movq	-96(%rbp), %rdx
	addq	%rax, %rdx
	movq	-88(%rbp), %rax
	movq	%rdx, 32(%rax)
.L9:
	movq	-88(%rbp), %rax
	movzbl	24(%rax), %eax
	testb	%al, %al
	je	.L10
	movq	-120(%rbp), %rax
	movq	%rax, %rdi
	call	_ZNK6Writer12bytes_pushedEv@PLT
	movq	-88(%rbp), %rdx
	movq	32(%rdx), %rdx
	cmpq	%rdx, %rax
	jb	.L10
	movl	$1, %eax
	jmp	.L11
.L10:
	movl	$0, %eax
.L11:
	testb	%al, %al
	je	.L18
	movq	-120(%rbp), %rax
	movq	%rax, %rdi
	call	_ZN6Writer5closeEv@PLT
	jmp	.L18
.L16:
	endbr64
	movq	%rax, %rbx
	leaq	-64(%rbp), %rax
	movq	%rax, %rdi
	call	_ZNSt7__cxx1112basic_stringIcSt11char_traitsIcESaIcEED1Ev@PLT
	movq	%rbx, %rax
	movq	%rax, %rdi
	call	_Unwind_Resume@PLT
.L17:
	endbr64
	movq	%rax, %rbx
	leaq	-64(%rbp), %rax
	movq	%rax, %rdi
	call	_ZNSt7__cxx1112basic_stringIcSt11char_traitsIcESaIcEED1Ev@PLT
	movq	%rbx, %rax
	movq	%rax, %rdi
	call	_Unwind_Resume@PLT
.LEHE4:
.L18:
	nop
	movq	-24(%rbp), %rax
	subq	%fs:40, %rax
	je	.L15
	call	__stack_chk_fail@PLT
.L15:
	movq	-8(%rbp), %rbx
	leave
	.cfi_def_cfa 7, 8
	ret
	.cfi_endproc
.LFE3015:
	.globl	__gxx_personality_v0
	.section	.gcc_except_table,"a",@progbits
.LLSDA3015:
	.byte	0xff
	.byte	0xff
	.byte	0x1
	.uleb128 .LLSDACSE3015-.LLSDACSB3015
.LLSDACSB3015:
	.uleb128 .LEHB0-.LFB3015
	.uleb128 .LEHE0-.LEHB0
	.uleb128 0
	.uleb128 0
	.uleb128 .LEHB1-.LFB3015
	.uleb128 .LEHE1-.LEHB1
	.uleb128 .L16-.LFB3015
	.uleb128 0
	.uleb128 .LEHB2-.LFB3015
	.uleb128 .LEHE2-.LEHB2
	.uleb128 0
	.uleb128 0
	.uleb128 .LEHB3-.LFB3015
	.uleb128 .LEHE3-.LEHB3
	.uleb128 .L17-.LFB3015
	.uleb128 0
	.uleb128 .LEHB4-.LFB3015
	.uleb128 .LEHE4-.LEHB4
	.uleb128 0
	.uleb128 0
.LLSDACSE3015:
	.text
	.size	_ZN11Reassembler6insertEmNSt7__cxx1112basic_stringIcSt11char_traitsIcESaIcEEEbR6Writer, .-_ZN11Reassembler6insertEmNSt7__cxx1112basic_stringIcSt11char_traitsIcESaIcEEEbR6Writer
	.align 2
	.globl	_ZNK11Reassembler13bytes_pendingEv
	.type	_ZNK11Reassembler13bytes_pendingEv, @function
_ZNK11Reassembler13bytes_pendingEv:
.LFB3017:
	.cfi_startproc
	endbr64
	pushq	%rbp
	.cfi_def_cfa_offset 16
	.cfi_offset 6, -16
	movq	%rsp, %rbp
	.cfi_def_cfa_register 6
	movq	%rdi, -8(%rbp)
	movq	-8(%rbp), %rax
	movq	16(%rax), %rax
	popq	%rbp
	.cfi_def_cfa 7, 8
	ret
	.cfi_endproc
.LFE3017:
	.size	_ZNK11Reassembler13bytes_pendingEv, .-_ZNK11Reassembler13bytes_pendingEv
	.section	.text._ZNSt4pairImNSt7__cxx1112basic_stringIcSt11char_traitsIcESaIcEEEED2Ev,"axG",@progbits,_ZNSt4pairImNSt7__cxx1112basic_stringIcSt11char_traitsIcESaIcEEEED5Ev,comdat
	.align 2
	.weak	_ZNSt4pairImNSt7__cxx1112basic_stringIcSt11char_traitsIcESaIcEEEED2Ev
	.type	_ZNSt4pairImNSt7__cxx1112basic_stringIcSt11char_traitsIcESaIcEEEED2Ev, @function
_ZNSt4pairImNSt7__cxx1112basic_stringIcSt11char_traitsIcESaIcEEEED2Ev:
.LFB3033:
	.cfi_startproc
	endbr64
	pushq	%rbp
	.cfi_def_cfa_offset 16
	.cfi_offset 6, -16
	movq	%rsp, %rbp
	.cfi_def_cfa_register 6
	subq	$16, %rsp
	movq	%rdi, -8(%rbp)
	movq	-8(%rbp), %rax
	addq	$8, %rax
	movq	%rax, %rdi
	call	_ZNSt7__cxx1112basic_stringIcSt11char_traitsIcESaIcEED1Ev@PLT
	nop
	leave
	.cfi_def_cfa 7, 8
	ret
	.cfi_endproc
.LFE3033:
	.size	_ZNSt4pairImNSt7__cxx1112basic_stringIcSt11char_traitsIcESaIcEEEED2Ev, .-_ZNSt4pairImNSt7__cxx1112basic_stringIcSt11char_traitsIcESaIcEEEED2Ev
	.weak	_ZNSt4pairImNSt7__cxx1112basic_stringIcSt11char_traitsIcESaIcEEEED1Ev
	.set	_ZNSt4pairImNSt7__cxx1112basic_stringIcSt11char_traitsIcESaIcEEEED1Ev,_ZNSt4pairImNSt7__cxx1112basic_stringIcSt11char_traitsIcESaIcEEEED2Ev
	.text
	.align 2
	.globl	_ZN11Reassembler10preprocessEmNSt7__cxx1112basic_stringIcSt11char_traitsIcESaIcEEER6Writer
	.type	_ZN11Reassembler10preprocessEmNSt7__cxx1112basic_stringIcSt11char_traitsIcESaIcEEER6Writer, @function
_ZN11Reassembler10preprocessEmNSt7__cxx1112basic_stringIcSt11char_traitsIcESaIcEEER6Writer:
.LFB3018:
	.cfi_startproc
	.cfi_personality 0x9b,DW.ref.__gxx_personality_v0
	.cfi_lsda 0x1b,.LLSDA3018
	endbr64
	pushq	%rbp
	.cfi_def_cfa_offset 16
	.cfi_offset 6, -16
	movq	%rsp, %rbp
	.cfi_def_cfa_register 6
	pushq	%rbx
	subq	$88, %rsp
	.cfi_offset 3, -24
	movq	%rdi, -72(%rbp)
	movq	%rsi, -80(%rbp)
	movq	%rdx, -88(%rbp)
	movq	%rcx, -96(%rbp)
	movq	%fs:40, %rax
	movq	%rax, -24(%rbp)
	xorl	%eax, %eax
	movq	-96(%rbp), %rax
	movq	%rax, %rdi
.LEHB5:
	call	_ZNK6Writer12bytes_pushedEv@PLT
	movq	-72(%rbp), %rdx
	movq	%rax, (%rdx)
	movq	-96(%rbp), %rax
	movq	%rax, %rdi
	call	_ZNK6Writer18available_capacityEv@PLT
	movq	-72(%rbp), %rdx
	movq	%rax, 8(%rdx)
	movq	-72(%rbp), %rax
	movq	(%rax), %rdx
	movq	-80(%rbp), %rax
	cmpq	%rax, %rdx
	jbe	.L23
	movq	-88(%rbp), %rax
	movq	%rax, %rdi
	call	_ZNKSt7__cxx1112basic_stringIcSt11char_traitsIcESaIcEE4sizeEv@PLT
	movq	-80(%rbp), %rdx
	addq	%rax, %rdx
	movq	-72(%rbp), %rax
	movq	(%rax), %rax
	cmpq	%rax, %rdx
	setbe	%al
	testb	%al, %al
	jne	.L34
	movq	-72(%rbp), %rax
	movq	(%rax), %rax
	movq	-80(%rbp), %rcx
	subq	%rcx, %rax
	movq	%rax, %rdx
	leaq	-64(%rbp), %rax
	movq	-88(%rbp), %rsi
	movq	$-1, %rcx
	movq	%rax, %rdi
	call	_ZNKSt7__cxx1112basic_stringIcSt11char_traitsIcESaIcEE6substrEmm@PLT
	leaq	-64(%rbp), %rdx
	movq	-88(%rbp), %rax
	movq	%rdx, %rsi
	movq	%rax, %rdi
	call	_ZNSt7__cxx1112basic_stringIcSt11char_traitsIcESaIcEEaSEOS4_@PLT
	leaq	-64(%rbp), %rax
	movq	%rax, %rdi
	call	_ZNSt7__cxx1112basic_stringIcSt11char_traitsIcESaIcEED1Ev@PLT
	movq	-72(%rbp), %rax
	movq	(%rax), %rax
	movq	%rax, -80(%rbp)
.L23:
	movq	-88(%rbp), %rax
	movq	%rax, %rdi
	call	_ZNKSt7__cxx1112basic_stringIcSt11char_traitsIcESaIcEE4sizeEv@PLT
	movq	-80(%rbp), %rdx
	addq	%rax, %rdx
	movq	-72(%rbp), %rax
	movq	(%rax), %rcx
	movq	-72(%rbp), %rax
	movq	8(%rax), %rax
	addq	%rcx, %rax
	cmpq	%rax, %rdx
	seta	%al
	testb	%al, %al
	je	.L26
	movq	-72(%rbp), %rax
	movq	(%rax), %rdx
	movq	-72(%rbp), %rax
	movq	8(%rax), %rax
	addq	%rax, %rdx
	movq	-80(%rbp), %rax
	cmpq	%rax, %rdx
	jbe	.L35
	movq	-72(%rbp), %rax
	movq	(%rax), %rdx
	movq	-72(%rbp), %rax
	movq	8(%rax), %rax
	addq	%rdx, %rax
	movq	-80(%rbp), %rcx
	subq	%rcx, %rax
	movq	%rax, %rdx
	leaq	-64(%rbp), %rax
	movq	-88(%rbp), %rsi
	movq	%rdx, %rcx
	movl	$0, %edx
	movq	%rax, %rdi
	call	_ZNKSt7__cxx1112basic_stringIcSt11char_traitsIcESaIcEE6substrEmm@PLT
	leaq	-64(%rbp), %rdx
	movq	-88(%rbp), %rax
	movq	%rdx, %rsi
	movq	%rax, %rdi
	call	_ZNSt7__cxx1112basic_stringIcSt11char_traitsIcESaIcEEaSEOS4_@PLT
	leaq	-64(%rbp), %rax
	movq	%rax, %rdi
	call	_ZNSt7__cxx1112basic_stringIcSt11char_traitsIcESaIcEED1Ev@PLT
.L26:
	movq	-72(%rbp), %rax
	addq	$40, %rax
	movq	%rax, %rdi
	call	_ZNKSt3mapImNSt7__cxx1112basic_stringIcSt11char_traitsIcESaIcEEESt4lessImESaISt4pairIKmS5_EEE5emptyEv
	testb	%al, %al
	je	.L28
	movq	-72(%rbp), %rax
	leaq	40(%rax), %rbx
	movq	-88(%rbp), %rdx
	leaq	-80(%rbp), %rcx
	leaq	-64(%rbp), %rax
	movq	%rcx, %rsi
	movq	%rax, %rdi
	call	_ZNSt4pairImNSt7__cxx1112basic_stringIcSt11char_traitsIcESaIcEEEEC1IRmRS5_Lb1EEEOT_OT0_
.LEHE5:
	leaq	-64(%rbp), %rax
	movq	%rax, %rsi
	movq	%rbx, %rdi
.LEHB6:
	call	_ZNSt3mapImNSt7__cxx1112basic_stringIcSt11char_traitsIcESaIcEEESt4lessImESaISt4pairIKmS5_EEE6insertIS8_ImS5_EEENSt9enable_ifIXsrSt16is_constructibleISA_JT_EE5valueES8_ISt17_Rb_tree_iteratorISA_EbEE4typeEOSH_
.LEHE6:
	leaq	-64(%rbp), %rax
	movq	%rax, %rdi
	call	_ZNSt4pairImNSt7__cxx1112basic_stringIcSt11char_traitsIcESaIcEEEED1Ev
	movq	-88(%rbp), %rax
	movq	%rax, %rdi
	call	_ZNKSt7__cxx1112basic_stringIcSt11char_traitsIcESaIcEE4sizeEv@PLT
	movq	%rax, %rdx
	movq	-72(%rbp), %rax
	movq	16(%rax), %rax
	addq	%rax, %rdx
	movq	-72(%rbp), %rax
	movq	%rdx, 16(%rax)
	jmp	.L22
.L28:
	movq	-88(%rbp), %rdx
	leaq	-64(%rbp), %rax
	movq	%rdx, %rsi
	movq	%rax, %rdi
.LEHB7:
	call	_ZNSt7__cxx1112basic_stringIcSt11char_traitsIcESaIcEEC1ERKS4_@PLT
.LEHE7:
	movq	-80(%rbp), %rcx
	leaq	-64(%rbp), %rdx
	movq	-72(%rbp), %rax
	movq	%rcx, %rsi
	movq	%rax, %rdi
.LEHB8:
	call	_ZN11Reassembler5storeEmNSt7__cxx1112basic_stringIcSt11char_traitsIcESaIcEEE
.LEHE8:
	leaq	-64(%rbp), %rax
	movq	%rax, %rdi
	call	_ZNSt7__cxx1112basic_stringIcSt11char_traitsIcESaIcEED1Ev@PLT
	jmp	.L22
.L32:
	endbr64
	movq	%rax, %rbx
	leaq	-64(%rbp), %rax
	movq	%rax, %rdi
	call	_ZNSt4pairImNSt7__cxx1112basic_stringIcSt11char_traitsIcESaIcEEEED1Ev
	movq	%rbx, %rax
	movq	%rax, %rdi
.LEHB9:
	call	_Unwind_Resume@PLT
.L33:
	endbr64
	movq	%rax, %rbx
	leaq	-64(%rbp), %rax
	movq	%rax, %rdi
	call	_ZNSt7__cxx1112basic_stringIcSt11char_traitsIcESaIcEED1Ev@PLT
	movq	%rbx, %rax
	movq	%rax, %rdi
	call	_Unwind_Resume@PLT
.LEHE9:
.L34:
	nop
	jmp	.L22
.L35:
	nop
.L22:
	movq	-24(%rbp), %rax
	subq	%fs:40, %rax
	je	.L31
	call	__stack_chk_fail@PLT
.L31:
	movq	-8(%rbp), %rbx
	leave
	.cfi_def_cfa 7, 8
	ret
	.cfi_endproc
.LFE3018:
	.section	.gcc_except_table
.LLSDA3018:
	.byte	0xff
	.byte	0xff
	.byte	0x1
	.uleb128 .LLSDACSE3018-.LLSDACSB3018
.LLSDACSB3018:
	.uleb128 .LEHB5-.LFB3018
	.uleb128 .LEHE5-.LEHB5
	.uleb128 0
	.uleb128 0
	.uleb128 .LEHB6-.LFB3018
	.uleb128 .LEHE6-.LEHB6
	.uleb128 .L32-.LFB3018
	.uleb128 0
	.uleb128 .LEHB7-.LFB3018
	.uleb128 .LEHE7-.LEHB7
	.uleb128 0
	.uleb128 0
	.uleb128 .LEHB8-.LFB3018
	.uleb128 .LEHE8-.LEHB8
	.uleb128 .L33-.LFB3018
	.uleb128 0
	.uleb128 .LEHB9-.LFB3018
	.uleb128 .LEHE9-.LEHB9
	.uleb128 0
	.uleb128 0
.LLSDACSE3018:
	.text
	.size	_ZN11Reassembler10preprocessEmNSt7__cxx1112basic_stringIcSt11char_traitsIcESaIcEEER6Writer, .-_ZN11Reassembler10preprocessEmNSt7__cxx1112basic_stringIcSt11char_traitsIcESaIcEEER6Writer
	.section	.text._ZNSt4pairIKmNSt7__cxx1112basic_stringIcSt11char_traitsIcESaIcEEEED2Ev,"axG",@progbits,_ZNSt4pairIKmNSt7__cxx1112basic_stringIcSt11char_traitsIcESaIcEEEED5Ev,comdat
	.align 2
	.weak	_ZNSt4pairIKmNSt7__cxx1112basic_stringIcSt11char_traitsIcESaIcEEEED2Ev
	.type	_ZNSt4pairIKmNSt7__cxx1112basic_stringIcSt11char_traitsIcESaIcEEEED2Ev, @function
_ZNSt4pairIKmNSt7__cxx1112basic_stringIcSt11char_traitsIcESaIcEEEED2Ev:
.LFB3051:
	.cfi_startproc
	endbr64
	pushq	%rbp
	.cfi_def_cfa_offset 16
	.cfi_offset 6, -16
	movq	%rsp, %rbp
	.cfi_def_cfa_register 6
	subq	$16, %rsp
	movq	%rdi, -8(%rbp)
	movq	-8(%rbp), %rax
	addq	$8, %rax
	movq	%rax, %rdi
	call	_ZNSt7__cxx1112basic_stringIcSt11char_traitsIcESaIcEED1Ev@PLT
	nop
	leave
	.cfi_def_cfa 7, 8
	ret
	.cfi_endproc
.LFE3051:
	.size	_ZNSt4pairIKmNSt7__cxx1112basic_stringIcSt11char_traitsIcESaIcEEEED2Ev, .-_ZNSt4pairIKmNSt7__cxx1112basic_stringIcSt11char_traitsIcESaIcEEEED2Ev
	.weak	_ZNSt4pairIKmNSt7__cxx1112basic_stringIcSt11char_traitsIcESaIcEEEED1Ev
	.set	_ZNSt4pairIKmNSt7__cxx1112basic_stringIcSt11char_traitsIcESaIcEEEED1Ev,_ZNSt4pairIKmNSt7__cxx1112basic_stringIcSt11char_traitsIcESaIcEEEED2Ev
	.text
	.align 2
	.globl	_ZN11Reassembler5storeEmNSt7__cxx1112basic_stringIcSt11char_traitsIcESaIcEEE
	.type	_ZN11Reassembler5storeEmNSt7__cxx1112basic_stringIcSt11char_traitsIcESaIcEEE, @function
_ZN11Reassembler5storeEmNSt7__cxx1112basic_stringIcSt11char_traitsIcESaIcEEE:
.LFB3041:
	.cfi_startproc
	.cfi_personality 0x9b,DW.ref.__gxx_personality_v0
	.cfi_lsda 0x1b,.LLSDA3041
	endbr64
	pushq	%rbp
	.cfi_def_cfa_offset 16
	.cfi_offset 6, -16
	movq	%rsp, %rbp
	.cfi_def_cfa_register 6
	pushq	%rbx
	subq	$152, %rsp
	.cfi_offset 3, -24
	movq	%rdi, -136(%rbp)
	movq	%rsi, -144(%rbp)
	movq	%rdx, -152(%rbp)
	movq	%fs:40, %rax
	movq	%rax, -24(%rbp)
	xorl	%eax, %eax
	movq	-136(%rbp), %rax
	addq	$40, %rax
	movq	%rax, %rdi
	call	_ZNSt3mapImNSt7__cxx1112basic_stringIcSt11char_traitsIcESaIcEEESt4lessImESaISt4pairIKmS5_EEE5beginEv
	movq	%rax, -128(%rbp)
	jmp	.L38
.L52:
	movq	-152(%rbp), %rax
	movq	%rax, %rdi
	call	_ZNKSt7__cxx1112basic_stringIcSt11char_traitsIcESaIcEE4sizeEv@PLT
	movq	-144(%rbp), %rdx
	addq	%rdx, %rax
	subq	$1, %rax
	movq	%rax, -112(%rbp)
	leaq	-128(%rbp), %rax
	movq	%rax, %rdi
	call	_ZNKSt17_Rb_tree_iteratorISt4pairIKmNSt7__cxx1112basic_stringIcSt11char_traitsIcESaIcEEEEEptEv
	movq	(%rax), %rbx
	leaq	-128(%rbp), %rax
	movq	%rax, %rdi
	call	_ZNKSt17_Rb_tree_iteratorISt4pairIKmNSt7__cxx1112basic_stringIcSt11char_traitsIcESaIcEEEEEptEv
	addq	$8, %rax
	movq	%rax, %rdi
	call	_ZNKSt7__cxx1112basic_stringIcSt11char_traitsIcESaIcEE4sizeEv@PLT
	addq	%rbx, %rax
	subq	$1, %rax
	movq	%rax, -104(%rbp)
	leaq	-128(%rbp), %rax
	movq	%rax, %rdi
	call	_ZNKSt17_Rb_tree_iteratorISt4pairIKmNSt7__cxx1112basic_stringIcSt11char_traitsIcESaIcEEEEEptEv
	movq	(%rax), %rdx
	movq	-144(%rbp), %rax
	cmpq	%rax, %rdx
	ja	.L39
	movq	-112(%rbp), %rax
	cmpq	-104(%rbp), %rax
	ja	.L39
	movl	$1, %eax
	jmp	.L40
.L39:
	movl	$0, %eax
.L40:
	testb	%al, %al
	je	.L41
	nop
	jmp	.L37
.L41:
	leaq	-128(%rbp), %rax
	movq	%rax, %rdi
	call	_ZNKSt17_Rb_tree_iteratorISt4pairIKmNSt7__cxx1112basic_stringIcSt11char_traitsIcESaIcEEEEEptEv
	movq	(%rax), %rdx
	movq	-144(%rbp), %rax
	cmpq	%rax, %rdx
	jb	.L43
	movq	-112(%rbp), %rax
	cmpq	-104(%rbp), %rax
	jb	.L43
	movl	$1, %eax
	jmp	.L44
.L43:
	movl	$0, %eax
.L44:
	testb	%al, %al
	je	.L45
	leaq	-128(%rbp), %rax
	movq	%rax, %rdi
	call	_ZNKSt17_Rb_tree_iteratorISt4pairIKmNSt7__cxx1112basic_stringIcSt11char_traitsIcESaIcEEEEEptEv
	addq	$8, %rax
	movq	%rax, %rdi
	call	_ZNKSt7__cxx1112basic_stringIcSt11char_traitsIcESaIcEE4sizeEv@PLT
	movq	%rax, %rcx
	movq	-136(%rbp), %rax
	movq	16(%rax), %rax
	subq	%rcx, %rax
	movq	%rax, %rdx
	movq	-136(%rbp), %rax
	movq	%rdx, 16(%rax)
	movq	-136(%rbp), %rax
	leaq	40(%rax), %rdx
	movq	-128(%rbp), %rax
	movq	%rax, %rsi
	movq	%rdx, %rdi
.LEHB10:
	call	_ZNSt3mapImNSt7__cxx1112basic_stringIcSt11char_traitsIcESaIcEEESt4lessImESaISt4pairIKmS5_EEE5eraseB5cxx11ESt17_Rb_tree_iteratorISA_E
	jmp	.L46
.L45:
	leaq	-128(%rbp), %rax
	movq	%rax, %rdi
	call	_ZNKSt17_Rb_tree_iteratorISt4pairIKmNSt7__cxx1112basic_stringIcSt11char_traitsIcESaIcEEEEEptEv
	movq	(%rax), %rdx
	movq	-144(%rbp), %rax
	cmpq	%rax, %rdx
	jb	.L47
	leaq	-128(%rbp), %rax
	movq	%rax, %rdi
	call	_ZNKSt17_Rb_tree_iteratorISt4pairIKmNSt7__cxx1112basic_stringIcSt11char_traitsIcESaIcEEEEEptEv
	movq	(%rax), %rax
	cmpq	%rax, -112(%rbp)
	jb	.L47
	movq	-112(%rbp), %rax
	cmpq	-104(%rbp), %rax
	ja	.L47
	movl	$1, %eax
	jmp	.L48
.L47:
	movl	$0, %eax
.L48:
	testb	%al, %al
	je	.L49
	leaq	-128(%rbp), %rax
	movq	%rax, %rdi
	call	_ZNKSt17_Rb_tree_iteratorISt4pairIKmNSt7__cxx1112basic_stringIcSt11char_traitsIcESaIcEEEEEptEv
	leaq	8(%rax), %rbx
	leaq	-128(%rbp), %rax
	movq	%rax, %rdi
	call	_ZNKSt17_Rb_tree_iteratorISt4pairIKmNSt7__cxx1112basic_stringIcSt11char_traitsIcESaIcEEEEEptEv
	movq	(%rax), %rax
	movq	-144(%rbp), %rcx
	subq	%rcx, %rax
	movq	%rax, %rdx
	leaq	-96(%rbp), %rax
	movq	-152(%rbp), %rsi
	movq	%rdx, %rcx
	movl	$0, %edx
	movq	%rax, %rdi
	call	_ZNKSt7__cxx1112basic_stringIcSt11char_traitsIcESaIcEE6substrEmm@PLT
.LEHE10:
	leaq	-64(%rbp), %rax
	leaq	-96(%rbp), %rcx
	movq	%rbx, %rdx
	movq	%rcx, %rsi
	movq	%rax, %rdi
.LEHB11:
	call	_ZStplIcSt11char_traitsIcESaIcEENSt7__cxx1112basic_stringIT_T0_T1_EEOS8_RKS8_
.LEHE11:
	leaq	-64(%rbp), %rdx
	movq	-152(%rbp), %rax
	movq	%rdx, %rsi
	movq	%rax, %rdi
	call	_ZNSt7__cxx1112basic_stringIcSt11char_traitsIcESaIcEEaSEOS4_@PLT
	leaq	-64(%rbp), %rax
	movq	%rax, %rdi
	call	_ZNSt7__cxx1112basic_stringIcSt11char_traitsIcESaIcEED1Ev@PLT
	leaq	-96(%rbp), %rax
	movq	%rax, %rdi
	call	_ZNSt7__cxx1112basic_stringIcSt11char_traitsIcESaIcEED1Ev@PLT
	leaq	-128(%rbp), %rax
	movq	%rax, %rdi
	call	_ZNKSt17_Rb_tree_iteratorISt4pairIKmNSt7__cxx1112basic_stringIcSt11char_traitsIcESaIcEEEEEptEv
	addq	$8, %rax
	movq	%rax, %rdi
	call	_ZNKSt7__cxx1112basic_stringIcSt11char_traitsIcESaIcEE4sizeEv@PLT
	movq	%rax, %rcx
	movq	-136(%rbp), %rax
	movq	16(%rax), %rax
	subq	%rcx, %rax
	movq	%rax, %rdx
	movq	-136(%rbp), %rax
	movq	%rdx, 16(%rax)
	movq	-136(%rbp), %rax
	leaq	40(%rax), %rdx
	movq	-128(%rbp), %rax
	movq	%rax, %rsi
	movq	%rdx, %rdi
.LEHB12:
	call	_ZNSt3mapImNSt7__cxx1112basic_stringIcSt11char_traitsIcESaIcEEESt4lessImESaISt4pairIKmS5_EEE5eraseB5cxx11ESt17_Rb_tree_iteratorISA_E
	jmp	.L46
.L49:
	leaq	-128(%rbp), %rax
	movq	%rax, %rdi
	call	_ZNKSt17_Rb_tree_iteratorISt4pairIKmNSt7__cxx1112basic_stringIcSt11char_traitsIcESaIcEEEEEptEv
	movq	(%rax), %rdx
	movq	-144(%rbp), %rax
	cmpq	%rax, %rdx
	ja	.L50
	movq	-144(%rbp), %rax
	cmpq	%rax, -104(%rbp)
	jb	.L50
	movq	-112(%rbp), %rax
	cmpq	-104(%rbp), %rax
	jb	.L50
	movl	$1, %eax
	jmp	.L51
.L50:
	movl	$0, %eax
.L51:
	testb	%al, %al
	je	.L46
	movq	-144(%rbp), %rdx
	movq	-104(%rbp), %rax
	subq	%rdx, %rax
	leaq	1(%rax), %rdx
	leaq	-96(%rbp), %rax
	movq	-152(%rbp), %rsi
	movq	$-1, %rcx
	movq	%rax, %rdi
	call	_ZNKSt7__cxx1112basic_stringIcSt11char_traitsIcESaIcEE6substrEmm@PLT
.LEHE12:
	leaq	-128(%rbp), %rax
	movq	%rax, %rdi
	call	_ZNKSt17_Rb_tree_iteratorISt4pairIKmNSt7__cxx1112basic_stringIcSt11char_traitsIcESaIcEEEEEptEv
	leaq	8(%rax), %rcx
	leaq	-64(%rbp), %rax
	leaq	-96(%rbp), %rdx
	movq	%rcx, %rsi
	movq	%rax, %rdi
.LEHB13:
	call	_ZStplIcSt11char_traitsIcESaIcEENSt7__cxx1112basic_stringIT_T0_T1_EERKS8_OS8_
.LEHE13:
	leaq	-64(%rbp), %rdx
	movq	-152(%rbp), %rax
	movq	%rdx, %rsi
	movq	%rax, %rdi
	call	_ZNSt7__cxx1112basic_stringIcSt11char_traitsIcESaIcEEaSEOS4_@PLT
	leaq	-64(%rbp), %rax
	movq	%rax, %rdi
	call	_ZNSt7__cxx1112basic_stringIcSt11char_traitsIcESaIcEED1Ev@PLT
	leaq	-96(%rbp), %rax
	movq	%rax, %rdi
	call	_ZNSt7__cxx1112basic_stringIcSt11char_traitsIcESaIcEED1Ev@PLT
	leaq	-128(%rbp), %rax
	movq	%rax, %rdi
	call	_ZNKSt17_Rb_tree_iteratorISt4pairIKmNSt7__cxx1112basic_stringIcSt11char_traitsIcESaIcEEEEEptEv
	addq	$8, %rax
	movq	%rax, %rdi
	call	_ZNKSt7__cxx1112basic_stringIcSt11char_traitsIcESaIcEE4sizeEv@PLT
	movq	%rax, %rcx
	movq	-136(%rbp), %rax
	movq	16(%rax), %rax
	subq	%rcx, %rax
	movq	%rax, %rdx
	movq	-136(%rbp), %rax
	movq	%rdx, 16(%rax)
	leaq	-128(%rbp), %rax
	movq	%rax, %rdi
	call	_ZNKSt17_Rb_tree_iteratorISt4pairIKmNSt7__cxx1112basic_stringIcSt11char_traitsIcESaIcEEEEEptEv
	movq	(%rax), %rax
	movq	%rax, -144(%rbp)
	movq	-136(%rbp), %rax
	leaq	40(%rax), %rdx
	movq	-128(%rbp), %rax
	movq	%rax, %rsi
	movq	%rdx, %rdi
.LEHB14:
	call	_ZNSt3mapImNSt7__cxx1112basic_stringIcSt11char_traitsIcESaIcEEESt4lessImESaISt4pairIKmS5_EEE5eraseB5cxx11ESt17_Rb_tree_iteratorISA_E
.L46:
	leaq	-128(%rbp), %rax
	movl	$0, %esi
	movq	%rax, %rdi
	call	_ZNSt17_Rb_tree_iteratorISt4pairIKmNSt7__cxx1112basic_stringIcSt11char_traitsIcESaIcEEEEEppEi
.L38:
	movq	-136(%rbp), %rax
	addq	$40, %rax
	movq	%rax, %rdi
	call	_ZNSt3mapImNSt7__cxx1112basic_stringIcSt11char_traitsIcESaIcEEESt4lessImESaISt4pairIKmS5_EEE3endEv
	movq	%rax, -120(%rbp)
	leaq	-120(%rbp), %rdx
	leaq	-128(%rbp), %rax
	movq	%rdx, %rsi
	movq	%rax, %rdi
	call	_ZStneRKSt17_Rb_tree_iteratorISt4pairIKmNSt7__cxx1112basic_stringIcSt11char_traitsIcESaIcEEEEESB_
	testb	%al, %al
	jne	.L52
	movq	-136(%rbp), %rax
	leaq	40(%rax), %rbx
	movq	-152(%rbp), %rdx
	leaq	-144(%rbp), %rcx
	leaq	-64(%rbp), %rax
	movq	%rcx, %rsi
	movq	%rax, %rdi
	call	_ZNSt4pairIKmNSt7__cxx1112basic_stringIcSt11char_traitsIcESaIcEEEEC1IRmRS6_Lb1EEEOT_OT0_
.LEHE14:
	leaq	-64(%rbp), %rax
	movq	%rax, %rsi
	movq	%rbx, %rdi
.LEHB15:
	call	_ZNSt3mapImNSt7__cxx1112basic_stringIcSt11char_traitsIcESaIcEEESt4lessImESaISt4pairIKmS5_EEE6insertEOSA_
.LEHE15:
	leaq	-64(%rbp), %rax
	movq	%rax, %rdi
	call	_ZNSt4pairIKmNSt7__cxx1112basic_stringIcSt11char_traitsIcESaIcEEEED1Ev
	movq	-152(%rbp), %rax
	movq	%rax, %rdi
	call	_ZNKSt7__cxx1112basic_stringIcSt11char_traitsIcESaIcEE4sizeEv@PLT
	movq	%rax, %rdx
	movq	-136(%rbp), %rax
	movq	16(%rax), %rax
	addq	%rax, %rdx
	movq	-136(%rbp), %rax
	movq	%rdx, 16(%rax)
	jmp	.L37
.L57:
	endbr64
	movq	%rax, %rbx
	leaq	-96(%rbp), %rax
	movq	%rax, %rdi
	call	_ZNSt7__cxx1112basic_stringIcSt11char_traitsIcESaIcEED1Ev@PLT
	movq	%rbx, %rax
	movq	%rax, %rdi
.LEHB16:
	call	_Unwind_Resume@PLT
.L58:
	endbr64
	movq	%rax, %rbx
	leaq	-96(%rbp), %rax
	movq	%rax, %rdi
	call	_ZNSt7__cxx1112basic_stringIcSt11char_traitsIcESaIcEED1Ev@PLT
	movq	%rbx, %rax
	movq	%rax, %rdi
	call	_Unwind_Resume@PLT
.L59:
	endbr64
	movq	%rax, %rbx
	leaq	-64(%rbp), %rax
	movq	%rax, %rdi
	call	_ZNSt4pairIKmNSt7__cxx1112basic_stringIcSt11char_traitsIcESaIcEEEED1Ev
	movq	%rbx, %rax
	movq	%rax, %rdi
	call	_Unwind_Resume@PLT
.LEHE16:
.L37:
	movq	-24(%rbp), %rax
	subq	%fs:40, %rax
	je	.L56
	call	__stack_chk_fail@PLT
.L56:
	movq	-8(%rbp), %rbx
	leave
	.cfi_def_cfa 7, 8
	ret
	.cfi_endproc
.LFE3041:
	.section	.gcc_except_table
.LLSDA3041:
	.byte	0xff
	.byte	0xff
	.byte	0x1
	.uleb128 .LLSDACSE3041-.LLSDACSB3041
.LLSDACSB3041:
	.uleb128 .LEHB10-.LFB3041
	.uleb128 .LEHE10-.LEHB10
	.uleb128 0
	.uleb128 0
	.uleb128 .LEHB11-.LFB3041
	.uleb128 .LEHE11-.LEHB11
	.uleb128 .L57-.LFB3041
	.uleb128 0
	.uleb128 .LEHB12-.LFB3041
	.uleb128 .LEHE12-.LEHB12
	.uleb128 0
	.uleb128 0
	.uleb128 .LEHB13-.LFB3041
	.uleb128 .LEHE13-.LEHB13
	.uleb128 .L58-.LFB3041
	.uleb128 0
	.uleb128 .LEHB14-.LFB3041
	.uleb128 .LEHE14-.LEHB14
	.uleb128 0
	.uleb128 0
	.uleb128 .LEHB15-.LFB3041
	.uleb128 .LEHE15-.LEHB15
	.uleb128 .L59-.LFB3041
	.uleb128 0
	.uleb128 .LEHB16-.LFB3041
	.uleb128 .LEHE16-.LEHB16
	.uleb128 0
	.uleb128 0
.LLSDACSE3041:
	.text
	.size	_ZN11Reassembler5storeEmNSt7__cxx1112basic_stringIcSt11char_traitsIcESaIcEEE, .-_ZN11Reassembler5storeEmNSt7__cxx1112basic_stringIcSt11char_traitsIcESaIcEEE
	.section	.text._ZNKSt3mapImNSt7__cxx1112basic_stringIcSt11char_traitsIcESaIcEEESt4lessImESaISt4pairIKmS5_EEE5emptyEv,"axG",@progbits,_ZNKSt3mapImNSt7__cxx1112basic_stringIcSt11char_traitsIcESaIcEEESt4lessImESaISt4pairIKmS5_EEE5emptyEv,comdat
	.align 2
	.weak	_ZNKSt3mapImNSt7__cxx1112basic_stringIcSt11char_traitsIcESaIcEEESt4lessImESaISt4pairIKmS5_EEE5emptyEv
	.type	_ZNKSt3mapImNSt7__cxx1112basic_stringIcSt11char_traitsIcESaIcEEESt4lessImESaISt4pairIKmS5_EEE5emptyEv, @function
_ZNKSt3mapImNSt7__cxx1112basic_stringIcSt11char_traitsIcESaIcEEESt4lessImESaISt4pairIKmS5_EEE5emptyEv:
.LFB3339:
	.cfi_startproc
	endbr64
	pushq	%rbp
	.cfi_def_cfa_offset 16
	.cfi_offset 6, -16
	movq	%rsp, %rbp
	.cfi_def_cfa_register 6
	subq	$16, %rsp
	movq	%rdi, -8(%rbp)
	movq	-8(%rbp), %rax
	movq	%rax, %rdi
	call	_ZNKSt8_Rb_treeImSt4pairIKmNSt7__cxx1112basic_stringIcSt11char_traitsIcESaIcEEEESt10_Select1stIS8_ESt4lessImESaIS8_EE5emptyEv
	leave
	.cfi_def_cfa 7, 8
	ret
	.cfi_endproc
.LFE3339:
	.size	_ZNKSt3mapImNSt7__cxx1112basic_stringIcSt11char_traitsIcESaIcEEESt4lessImESaISt4pairIKmS5_EEE5emptyEv, .-_ZNKSt3mapImNSt7__cxx1112basic_stringIcSt11char_traitsIcESaIcEEESt4lessImESaISt4pairIKmS5_EEE5emptyEv
	.section	.text._ZNSt3mapImNSt7__cxx1112basic_stringIcSt11char_traitsIcESaIcEEESt4lessImESaISt4pairIKmS5_EEE5beginEv,"axG",@progbits,_ZNSt3mapImNSt7__cxx1112basic_stringIcSt11char_traitsIcESaIcEEESt4lessImESaISt4pairIKmS5_EEE5beginEv,comdat
	.align 2
	.weak	_ZNSt3mapImNSt7__cxx1112basic_stringIcSt11char_traitsIcESaIcEEESt4lessImESaISt4pairIKmS5_EEE5beginEv
	.type	_ZNSt3mapImNSt7__cxx1112basic_stringIcSt11char_traitsIcESaIcEEESt4lessImESaISt4pairIKmS5_EEE5beginEv, @function
_ZNSt3mapImNSt7__cxx1112basic_stringIcSt11char_traitsIcESaIcEEESt4lessImESaISt4pairIKmS5_EEE5beginEv:
.LFB3340:
	.cfi_startproc
	endbr64
	pushq	%rbp
	.cfi_def_cfa_offset 16
	.cfi_offset 6, -16
	movq	%rsp, %rbp
	.cfi_def_cfa_register 6
	subq	$16, %rsp
	movq	%rdi, -8(%rbp)
	movq	-8(%rbp), %rax
	movq	%rax, %rdi
	call	_ZNSt8_Rb_treeImSt4pairIKmNSt7__cxx1112basic_stringIcSt11char_traitsIcESaIcEEEESt10_Select1stIS8_ESt4lessImESaIS8_EE5beginEv
	leave
	.cfi_def_cfa 7, 8
	ret
	.cfi_endproc
.LFE3340:
	.size	_ZNSt3mapImNSt7__cxx1112basic_stringIcSt11char_traitsIcESaIcEEESt4lessImESaISt4pairIKmS5_EEE5beginEv, .-_ZNSt3mapImNSt7__cxx1112basic_stringIcSt11char_traitsIcESaIcEEESt4lessImESaISt4pairIKmS5_EEE5beginEv
	.section	.text._ZNKSt17_Rb_tree_iteratorISt4pairIKmNSt7__cxx1112basic_stringIcSt11char_traitsIcESaIcEEEEEptEv,"axG",@progbits,_ZNKSt17_Rb_tree_iteratorISt4pairIKmNSt7__cxx1112basic_stringIcSt11char_traitsIcESaIcEEEEEptEv,comdat
	.align 2
	.weak	_ZNKSt17_Rb_tree_iteratorISt4pairIKmNSt7__cxx1112basic_stringIcSt11char_traitsIcESaIcEEEEEptEv
	.type	_ZNKSt17_Rb_tree_iteratorISt4pairIKmNSt7__cxx1112basic_stringIcSt11char_traitsIcESaIcEEEEEptEv, @function
_ZNKSt17_Rb_tree_iteratorISt4pairIKmNSt7__cxx1112basic_stringIcSt11char_traitsIcESaIcEEEEEptEv:
.LFB3341:
	.cfi_startproc
	endbr64
	pushq	%rbp
	.cfi_def_cfa_offset 16
	.cfi_offset 6, -16
	movq	%rsp, %rbp
	.cfi_def_cfa_register 6
	subq	$16, %rsp
	movq	%rdi, -8(%rbp)
	movq	-8(%rbp), %rax
	movq	(%rax), %rax
	movq	%rax, %rdi
	call	_ZNSt13_Rb_tree_nodeISt4pairIKmNSt7__cxx1112basic_stringIcSt11char_traitsIcESaIcEEEEE9_M_valptrEv
	leave
	.cfi_def_cfa 7, 8
	ret
	.cfi_endproc
.LFE3341:
	.size	_ZNKSt17_Rb_tree_iteratorISt4pairIKmNSt7__cxx1112basic_stringIcSt11char_traitsIcESaIcEEEEEptEv, .-_ZNKSt17_Rb_tree_iteratorISt4pairIKmNSt7__cxx1112basic_stringIcSt11char_traitsIcESaIcEEEEEptEv
	.section	.text._ZNSt3mapImNSt7__cxx1112basic_stringIcSt11char_traitsIcESaIcEEESt4lessImESaISt4pairIKmS5_EEE5eraseB5cxx11ESt17_Rb_tree_iteratorISA_E,"axG",@progbits,_ZNSt3mapImNSt7__cxx1112basic_stringIcSt11char_traitsIcESaIcEEESt4lessImESaISt4pairIKmS5_EEE5eraseB5cxx11ESt17_Rb_tree_iteratorISA_E,comdat
	.align 2
	.weak	_ZNSt3mapImNSt7__cxx1112basic_stringIcSt11char_traitsIcESaIcEEESt4lessImESaISt4pairIKmS5_EEE5eraseB5cxx11ESt17_Rb_tree_iteratorISA_E
	.type	_ZNSt3mapImNSt7__cxx1112basic_stringIcSt11char_traitsIcESaIcEEESt4lessImESaISt4pairIKmS5_EEE5eraseB5cxx11ESt17_Rb_tree_iteratorISA_E, @function
_ZNSt3mapImNSt7__cxx1112basic_stringIcSt11char_traitsIcESaIcEEESt4lessImESaISt4pairIKmS5_EEE5eraseB5cxx11ESt17_Rb_tree_iteratorISA_E:
.LFB3342:
	.cfi_startproc
	endbr64
	pushq	%rbp
	.cfi_def_cfa_offset 16
	.cfi_offset 6, -16
	movq	%rsp, %rbp
	.cfi_def_cfa_register 6
	subq	$16, %rsp
	movq	%rdi, -8(%rbp)
	movq	%rsi, -16(%rbp)
	movq	-8(%rbp), %rax
	movq	-16(%rbp), %rdx
	movq	%rdx, %rsi
	movq	%rax, %rdi
	call	_ZNSt8_Rb_treeImSt4pairIKmNSt7__cxx1112basic_stringIcSt11char_traitsIcESaIcEEEESt10_Select1stIS8_ESt4lessImESaIS8_EE5eraseB5cxx11ESt17_Rb_tree_iteratorIS8_E
	leave
	.cfi_def_cfa 7, 8
	ret
	.cfi_endproc
.LFE3342:
	.size	_ZNSt3mapImNSt7__cxx1112basic_stringIcSt11char_traitsIcESaIcEEESt4lessImESaISt4pairIKmS5_EEE5eraseB5cxx11ESt17_Rb_tree_iteratorISA_E, .-_ZNSt3mapImNSt7__cxx1112basic_stringIcSt11char_traitsIcESaIcEEESt4lessImESaISt4pairIKmS5_EEE5eraseB5cxx11ESt17_Rb_tree_iteratorISA_E
	.section	.text._ZNSt4pairImNSt7__cxx1112basic_stringIcSt11char_traitsIcESaIcEEEEC2IRmRS5_Lb1EEEOT_OT0_,"axG",@progbits,_ZNSt4pairImNSt7__cxx1112basic_stringIcSt11char_traitsIcESaIcEEEEC5IRmRS5_Lb1EEEOT_OT0_,comdat
	.align 2
	.weak	_ZNSt4pairImNSt7__cxx1112basic_stringIcSt11char_traitsIcESaIcEEEEC2IRmRS5_Lb1EEEOT_OT0_
	.type	_ZNSt4pairImNSt7__cxx1112basic_stringIcSt11char_traitsIcESaIcEEEEC2IRmRS5_Lb1EEEOT_OT0_, @function
_ZNSt4pairImNSt7__cxx1112basic_stringIcSt11char_traitsIcESaIcEEEEC2IRmRS5_Lb1EEEOT_OT0_:
.LFB3347:
	.cfi_startproc
	endbr64
	pushq	%rbp
	.cfi_def_cfa_offset 16
	.cfi_offset 6, -16
	movq	%rsp, %rbp
	.cfi_def_cfa_register 6
	pushq	%rbx
	subq	$40, %rsp
	.cfi_offset 3, -24
	movq	%rdi, -24(%rbp)
	movq	%rsi, -32(%rbp)
	movq	%rdx, -40(%rbp)
	movq	-32(%rbp), %rax
	movq	%rax, %rdi
	call	_ZSt7forwardIRmEOT_RNSt16remove_referenceIS1_E4typeE
	movq	(%rax), %rdx
	movq	-24(%rbp), %rax
	movq	%rdx, (%rax)
	movq	-24(%rbp), %rax
	leaq	8(%rax), %rbx
	movq	-40(%rbp), %rax
	movq	%rax, %rdi
	call	_ZSt7forwardIRNSt7__cxx1112basic_stringIcSt11char_traitsIcESaIcEEEEOT_RNSt16remove_referenceIS7_E4typeE
	movq	%rax, %rsi
	movq	%rbx, %rdi
	call	_ZNSt7__cxx1112basic_stringIcSt11char_traitsIcESaIcEEC1ERKS4_@PLT
	nop
	movq	-8(%rbp), %rbx
	leave
	.cfi_def_cfa 7, 8
	ret
	.cfi_endproc
.LFE3347:
	.size	_ZNSt4pairImNSt7__cxx1112basic_stringIcSt11char_traitsIcESaIcEEEEC2IRmRS5_Lb1EEEOT_OT0_, .-_ZNSt4pairImNSt7__cxx1112basic_stringIcSt11char_traitsIcESaIcEEEEC2IRmRS5_Lb1EEEOT_OT0_
	.weak	_ZNSt4pairImNSt7__cxx1112basic_stringIcSt11char_traitsIcESaIcEEEEC1IRmRS5_Lb1EEEOT_OT0_
	.set	_ZNSt4pairImNSt7__cxx1112basic_stringIcSt11char_traitsIcESaIcEEEEC1IRmRS5_Lb1EEEOT_OT0_,_ZNSt4pairImNSt7__cxx1112basic_stringIcSt11char_traitsIcESaIcEEEEC2IRmRS5_Lb1EEEOT_OT0_
	.section	.text._ZNSt3mapImNSt7__cxx1112basic_stringIcSt11char_traitsIcESaIcEEESt4lessImESaISt4pairIKmS5_EEE6insertIS8_ImS5_EEENSt9enable_ifIXsrSt16is_constructibleISA_JT_EE5valueES8_ISt17_Rb_tree_iteratorISA_EbEE4typeEOSH_,"axG",@progbits,_ZNSt3mapImNSt7__cxx1112basic_stringIcSt11char_traitsIcESaIcEEESt4lessImESaISt4pairIKmS5_EEE6insertIS8_ImS5_EEENSt9enable_ifIXsrSt16is_constructibleISA_JT_EE5valueES8_ISt17_Rb_tree_iteratorISA_EbEE4typeEOSH_,comdat
	.align 2
	.weak	_ZNSt3mapImNSt7__cxx1112basic_stringIcSt11char_traitsIcESaIcEEESt4lessImESaISt4pairIKmS5_EEE6insertIS8_ImS5_EEENSt9enable_ifIXsrSt16is_constructibleISA_JT_EE5valueES8_ISt17_Rb_tree_iteratorISA_EbEE4typeEOSH_
	.type	_ZNSt3mapImNSt7__cxx1112basic_stringIcSt11char_traitsIcESaIcEEESt4lessImESaISt4pairIKmS5_EEE6insertIS8_ImS5_EEENSt9enable_ifIXsrSt16is_constructibleISA_JT_EE5valueES8_ISt17_Rb_tree_iteratorISA_EbEE4typeEOSH_, @function
_ZNSt3mapImNSt7__cxx1112basic_stringIcSt11char_traitsIcESaIcEEESt4lessImESaISt4pairIKmS5_EEE6insertIS8_ImS5_EEENSt9enable_ifIXsrSt16is_constructibleISA_JT_EE5valueES8_ISt17_Rb_tree_iteratorISA_EbEE4typeEOSH_:
.LFB3349:
	.cfi_startproc
	endbr64
	pushq	%rbp
	.cfi_def_cfa_offset 16
	.cfi_offset 6, -16
	movq	%rsp, %rbp
	.cfi_def_cfa_register 6
	pushq	%rbx
	subq	$24, %rsp
	.cfi_offset 3, -24
	movq	%rdi, -24(%rbp)
	movq	%rsi, -32(%rbp)
	movq	-24(%rbp), %rbx
	movq	-32(%rbp), %rax
	movq	%rax, %rdi
	call	_ZSt7forwardISt4pairImNSt7__cxx1112basic_stringIcSt11char_traitsIcESaIcEEEEEOT_RNSt16remove_referenceIS8_E4typeE
	movq	%rax, %rsi
	movq	%rbx, %rdi
	call	_ZNSt8_Rb_treeImSt4pairIKmNSt7__cxx1112basic_stringIcSt11char_traitsIcESaIcEEEESt10_Select1stIS8_ESt4lessImESaIS8_EE17_M_emplace_uniqueIJS0_ImS7_EEEES0_ISt17_Rb_tree_iteratorIS8_EbEDpOT_
	movq	-8(%rbp), %rbx
	leave
	.cfi_def_cfa 7, 8
	ret
	.cfi_endproc
.LFE3349:
	.size	_ZNSt3mapImNSt7__cxx1112basic_stringIcSt11char_traitsIcESaIcEEESt4lessImESaISt4pairIKmS5_EEE6insertIS8_ImS5_EEENSt9enable_ifIXsrSt16is_constructibleISA_JT_EE5valueES8_ISt17_Rb_tree_iteratorISA_EbEE4typeEOSH_, .-_ZNSt3mapImNSt7__cxx1112basic_stringIcSt11char_traitsIcESaIcEEESt4lessImESaISt4pairIKmS5_EEE6insertIS8_ImS5_EEENSt9enable_ifIXsrSt16is_constructibleISA_JT_EE5valueES8_ISt17_Rb_tree_iteratorISA_EbEE4typeEOSH_
	.section	.text._ZNSt3mapImNSt7__cxx1112basic_stringIcSt11char_traitsIcESaIcEEESt4lessImESaISt4pairIKmS5_EEE3endEv,"axG",@progbits,_ZNSt3mapImNSt7__cxx1112basic_stringIcSt11char_traitsIcESaIcEEESt4lessImESaISt4pairIKmS5_EEE3endEv,comdat
	.align 2
	.weak	_ZNSt3mapImNSt7__cxx1112basic_stringIcSt11char_traitsIcESaIcEEESt4lessImESaISt4pairIKmS5_EEE3endEv
	.type	_ZNSt3mapImNSt7__cxx1112basic_stringIcSt11char_traitsIcESaIcEEESt4lessImESaISt4pairIKmS5_EEE3endEv, @function
_ZNSt3mapImNSt7__cxx1112basic_stringIcSt11char_traitsIcESaIcEEESt4lessImESaISt4pairIKmS5_EEE3endEv:
.LFB3350:
	.cfi_startproc
	endbr64
	pushq	%rbp
	.cfi_def_cfa_offset 16
	.cfi_offset 6, -16
	movq	%rsp, %rbp
	.cfi_def_cfa_register 6
	subq	$16, %rsp
	movq	%rdi, -8(%rbp)
	movq	-8(%rbp), %rax
	movq	%rax, %rdi
	call	_ZNSt8_Rb_treeImSt4pairIKmNSt7__cxx1112basic_stringIcSt11char_traitsIcESaIcEEEESt10_Select1stIS8_ESt4lessImESaIS8_EE3endEv
	leave
	.cfi_def_cfa 7, 8
	ret
	.cfi_endproc
.LFE3350:
	.size	_ZNSt3mapImNSt7__cxx1112basic_stringIcSt11char_traitsIcESaIcEEESt4lessImESaISt4pairIKmS5_EEE3endEv, .-_ZNSt3mapImNSt7__cxx1112basic_stringIcSt11char_traitsIcESaIcEEESt4lessImESaISt4pairIKmS5_EEE3endEv
	.section	.text._ZStneRKSt17_Rb_tree_iteratorISt4pairIKmNSt7__cxx1112basic_stringIcSt11char_traitsIcESaIcEEEEESB_,"axG",@progbits,_ZStneRKSt17_Rb_tree_iteratorISt4pairIKmNSt7__cxx1112basic_stringIcSt11char_traitsIcESaIcEEEEESB_,comdat
	.weak	_ZStneRKSt17_Rb_tree_iteratorISt4pairIKmNSt7__cxx1112basic_stringIcSt11char_traitsIcESaIcEEEEESB_
	.type	_ZStneRKSt17_Rb_tree_iteratorISt4pairIKmNSt7__cxx1112basic_stringIcSt11char_traitsIcESaIcEEEEESB_, @function
_ZStneRKSt17_Rb_tree_iteratorISt4pairIKmNSt7__cxx1112basic_stringIcSt11char_traitsIcESaIcEEEEESB_:
.LFB3351:
	.cfi_startproc
	endbr64
	pushq	%rbp
	.cfi_def_cfa_offset 16
	.cfi_offset 6, -16
	movq	%rsp, %rbp
	.cfi_def_cfa_register 6
	movq	%rdi, -8(%rbp)
	movq	%rsi, -16(%rbp)
	movq	-8(%rbp), %rax
	movq	(%rax), %rdx
	movq	-16(%rbp), %rax
	movq	(%rax), %rax
	cmpq	%rax, %rdx
	setne	%al
	popq	%rbp
	.cfi_def_cfa 7, 8
	ret
	.cfi_endproc
.LFE3351:
	.size	_ZStneRKSt17_Rb_tree_iteratorISt4pairIKmNSt7__cxx1112basic_stringIcSt11char_traitsIcESaIcEEEEESB_, .-_ZStneRKSt17_Rb_tree_iteratorISt4pairIKmNSt7__cxx1112basic_stringIcSt11char_traitsIcESaIcEEEEESB_
	.section	.text._ZNSt17_Rb_tree_iteratorISt4pairIKmNSt7__cxx1112basic_stringIcSt11char_traitsIcESaIcEEEEEppEi,"axG",@progbits,_ZNSt17_Rb_tree_iteratorISt4pairIKmNSt7__cxx1112basic_stringIcSt11char_traitsIcESaIcEEEEEppEi,comdat
	.align 2
	.weak	_ZNSt17_Rb_tree_iteratorISt4pairIKmNSt7__cxx1112basic_stringIcSt11char_traitsIcESaIcEEEEEppEi
	.type	_ZNSt17_Rb_tree_iteratorISt4pairIKmNSt7__cxx1112basic_stringIcSt11char_traitsIcESaIcEEEEEppEi, @function
_ZNSt17_Rb_tree_iteratorISt4pairIKmNSt7__cxx1112basic_stringIcSt11char_traitsIcESaIcEEEEEppEi:
.LFB3352:
	.cfi_startproc
	endbr64
	pushq	%rbp
	.cfi_def_cfa_offset 16
	.cfi_offset 6, -16
	movq	%rsp, %rbp
	.cfi_def_cfa_register 6
	subq	$32, %rsp
	movq	%rdi, -24(%rbp)
	movl	%esi, -28(%rbp)
	movq	%fs:40, %rax
	movq	%rax, -8(%rbp)
	xorl	%eax, %eax
	movq	-24(%rbp), %rax
	movq	(%rax), %rax
	movq	%rax, -16(%rbp)
	movq	-24(%rbp), %rax
	movq	(%rax), %rax
	movq	%rax, %rdi
	call	_ZSt18_Rb_tree_incrementPSt18_Rb_tree_node_base@PLT
	movq	-24(%rbp), %rdx
	movq	%rax, (%rdx)
	movq	-16(%rbp), %rax
	movq	-8(%rbp), %rdx
	subq	%fs:40, %rdx
	je	.L77
	call	__stack_chk_fail@PLT
.L77:
	leave
	.cfi_def_cfa 7, 8
	ret
	.cfi_endproc
.LFE3352:
	.size	_ZNSt17_Rb_tree_iteratorISt4pairIKmNSt7__cxx1112basic_stringIcSt11char_traitsIcESaIcEEEEEppEi, .-_ZNSt17_Rb_tree_iteratorISt4pairIKmNSt7__cxx1112basic_stringIcSt11char_traitsIcESaIcEEEEEppEi
	.section	.text._ZStplIcSt11char_traitsIcESaIcEENSt7__cxx1112basic_stringIT_T0_T1_EEOS8_RKS8_,"axG",@progbits,_ZStplIcSt11char_traitsIcESaIcEENSt7__cxx1112basic_stringIT_T0_T1_EEOS8_RKS8_,comdat
	.weak	_ZStplIcSt11char_traitsIcESaIcEENSt7__cxx1112basic_stringIT_T0_T1_EEOS8_RKS8_
	.type	_ZStplIcSt11char_traitsIcESaIcEENSt7__cxx1112basic_stringIT_T0_T1_EEOS8_RKS8_, @function
_ZStplIcSt11char_traitsIcESaIcEENSt7__cxx1112basic_stringIT_T0_T1_EEOS8_RKS8_:
.LFB3353:
	.cfi_startproc
	endbr64
	pushq	%rbp
	.cfi_def_cfa_offset 16
	.cfi_offset 6, -16
	movq	%rsp, %rbp
	.cfi_def_cfa_register 6
	subq	$32, %rsp
	movq	%rdi, -8(%rbp)
	movq	%rsi, -16(%rbp)
	movq	%rdx, -24(%rbp)
	movq	-24(%rbp), %rdx
	movq	-16(%rbp), %rax
	movq	%rdx, %rsi
	movq	%rax, %rdi
	call	_ZNSt7__cxx1112basic_stringIcSt11char_traitsIcESaIcEE6appendERKS4_@PLT
	movq	%rax, %rdi
	call	_ZSt4moveIRNSt7__cxx1112basic_stringIcSt11char_traitsIcESaIcEEEEONSt16remove_referenceIT_E4typeEOS8_
	movq	%rax, %rdx
	movq	-8(%rbp), %rax
	movq	%rdx, %rsi
	movq	%rax, %rdi
	call	_ZNSt7__cxx1112basic_stringIcSt11char_traitsIcESaIcEEC1EOS4_@PLT
	movq	-8(%rbp), %rax
	leave
	.cfi_def_cfa 7, 8
	ret
	.cfi_endproc
.LFE3353:
	.size	_ZStplIcSt11char_traitsIcESaIcEENSt7__cxx1112basic_stringIT_T0_T1_EEOS8_RKS8_, .-_ZStplIcSt11char_traitsIcESaIcEENSt7__cxx1112basic_stringIT_T0_T1_EEOS8_RKS8_
	.section	.text._ZStplIcSt11char_traitsIcESaIcEENSt7__cxx1112basic_stringIT_T0_T1_EERKS8_OS8_,"axG",@progbits,_ZStplIcSt11char_traitsIcESaIcEENSt7__cxx1112basic_stringIT_T0_T1_EERKS8_OS8_,comdat
	.weak	_ZStplIcSt11char_traitsIcESaIcEENSt7__cxx1112basic_stringIT_T0_T1_EERKS8_OS8_
	.type	_ZStplIcSt11char_traitsIcESaIcEENSt7__cxx1112basic_stringIT_T0_T1_EERKS8_OS8_, @function
_ZStplIcSt11char_traitsIcESaIcEENSt7__cxx1112basic_stringIT_T0_T1_EERKS8_OS8_:
.LFB3354:
	.cfi_startproc
	endbr64
	pushq	%rbp
	.cfi_def_cfa_offset 16
	.cfi_offset 6, -16
	movq	%rsp, %rbp
	.cfi_def_cfa_register 6
	subq	$32, %rsp
	movq	%rdi, -8(%rbp)
	movq	%rsi, -16(%rbp)
	movq	%rdx, -24(%rbp)
	movq	-16(%rbp), %rdx
	movq	-24(%rbp), %rax
	movl	$0, %esi
	movq	%rax, %rdi
	call	_ZNSt7__cxx1112basic_stringIcSt11char_traitsIcESaIcEE6insertEmRKS4_@PLT
	movq	%rax, %rdi
	call	_ZSt4moveIRNSt7__cxx1112basic_stringIcSt11char_traitsIcESaIcEEEEONSt16remove_referenceIT_E4typeEOS8_
	movq	%rax, %rdx
	movq	-8(%rbp), %rax
	movq	%rdx, %rsi
	movq	%rax, %rdi
	call	_ZNSt7__cxx1112basic_stringIcSt11char_traitsIcESaIcEEC1EOS4_@PLT
	movq	-8(%rbp), %rax
	leave
	.cfi_def_cfa 7, 8
	ret
	.cfi_endproc
.LFE3354:
	.size	_ZStplIcSt11char_traitsIcESaIcEENSt7__cxx1112basic_stringIT_T0_T1_EERKS8_OS8_, .-_ZStplIcSt11char_traitsIcESaIcEENSt7__cxx1112basic_stringIT_T0_T1_EERKS8_OS8_
	.section	.text._ZNSt4pairIKmNSt7__cxx1112basic_stringIcSt11char_traitsIcESaIcEEEEC2IRmRS6_Lb1EEEOT_OT0_,"axG",@progbits,_ZNSt4pairIKmNSt7__cxx1112basic_stringIcSt11char_traitsIcESaIcEEEEC5IRmRS6_Lb1EEEOT_OT0_,comdat
	.align 2
	.weak	_ZNSt4pairIKmNSt7__cxx1112basic_stringIcSt11char_traitsIcESaIcEEEEC2IRmRS6_Lb1EEEOT_OT0_
	.type	_ZNSt4pairIKmNSt7__cxx1112basic_stringIcSt11char_traitsIcESaIcEEEEC2IRmRS6_Lb1EEEOT_OT0_, @function
_ZNSt4pairIKmNSt7__cxx1112basic_stringIcSt11char_traitsIcESaIcEEEEC2IRmRS6_Lb1EEEOT_OT0_:
.LFB3356:
	.cfi_startproc
	endbr64
	pushq	%rbp
	.cfi_def_cfa_offset 16
	.cfi_offset 6, -16
	movq	%rsp, %rbp
	.cfi_def_cfa_register 6
	pushq	%rbx
	subq	$40, %rsp
	.cfi_offset 3, -24
	movq	%rdi, -24(%rbp)
	movq	%rsi, -32(%rbp)
	movq	%rdx, -40(%rbp)
	movq	-32(%rbp), %rax
	movq	%rax, %rdi
	call	_ZSt7forwardIRmEOT_RNSt16remove_referenceIS1_E4typeE
	movq	(%rax), %rdx
	movq	-24(%rbp), %rax
	movq	%rdx, (%rax)
	movq	-24(%rbp), %rax
	leaq	8(%rax), %rbx
	movq	-40(%rbp), %rax
	movq	%rax, %rdi
	call	_ZSt7forwardIRNSt7__cxx1112basic_stringIcSt11char_traitsIcESaIcEEEEOT_RNSt16remove_referenceIS7_E4typeE
	movq	%rax, %rsi
	movq	%rbx, %rdi
	call	_ZNSt7__cxx1112basic_stringIcSt11char_traitsIcESaIcEEC1ERKS4_@PLT
	nop
	movq	-8(%rbp), %rbx
	leave
	.cfi_def_cfa 7, 8
	ret
	.cfi_endproc
.LFE3356:
	.size	_ZNSt4pairIKmNSt7__cxx1112basic_stringIcSt11char_traitsIcESaIcEEEEC2IRmRS6_Lb1EEEOT_OT0_, .-_ZNSt4pairIKmNSt7__cxx1112basic_stringIcSt11char_traitsIcESaIcEEEEC2IRmRS6_Lb1EEEOT_OT0_
	.weak	_ZNSt4pairIKmNSt7__cxx1112basic_stringIcSt11char_traitsIcESaIcEEEEC1IRmRS6_Lb1EEEOT_OT0_
	.set	_ZNSt4pairIKmNSt7__cxx1112basic_stringIcSt11char_traitsIcESaIcEEEEC1IRmRS6_Lb1EEEOT_OT0_,_ZNSt4pairIKmNSt7__cxx1112basic_stringIcSt11char_traitsIcESaIcEEEEC2IRmRS6_Lb1EEEOT_OT0_
	.section	.text._ZNSt3mapImNSt7__cxx1112basic_stringIcSt11char_traitsIcESaIcEEESt4lessImESaISt4pairIKmS5_EEE6insertEOSA_,"axG",@progbits,_ZNSt3mapImNSt7__cxx1112basic_stringIcSt11char_traitsIcESaIcEEESt4lessImESaISt4pairIKmS5_EEE6insertEOSA_,comdat
	.align 2
	.weak	_ZNSt3mapImNSt7__cxx1112basic_stringIcSt11char_traitsIcESaIcEEESt4lessImESaISt4pairIKmS5_EEE6insertEOSA_
	.type	_ZNSt3mapImNSt7__cxx1112basic_stringIcSt11char_traitsIcESaIcEEESt4lessImESaISt4pairIKmS5_EEE6insertEOSA_, @function
_ZNSt3mapImNSt7__cxx1112basic_stringIcSt11char_traitsIcESaIcEEESt4lessImESaISt4pairIKmS5_EEE6insertEOSA_:
.LFB3358:
	.cfi_startproc
	endbr64
	pushq	%rbp
	.cfi_def_cfa_offset 16
	.cfi_offset 6, -16
	movq	%rsp, %rbp
	.cfi_def_cfa_register 6
	pushq	%rbx
	subq	$24, %rsp
	.cfi_offset 3, -24
	movq	%rdi, -24(%rbp)
	movq	%rsi, -32(%rbp)
	movq	-24(%rbp), %rbx
	movq	-32(%rbp), %rax
	movq	%rax, %rdi
	call	_ZSt4moveIRSt4pairIKmNSt7__cxx1112basic_stringIcSt11char_traitsIcESaIcEEEEEONSt16remove_referenceIT_E4typeEOSB_
	movq	%rax, %rsi
	movq	%rbx, %rdi
	call	_ZNSt8_Rb_treeImSt4pairIKmNSt7__cxx1112basic_stringIcSt11char_traitsIcESaIcEEEESt10_Select1stIS8_ESt4lessImESaIS8_EE16_M_insert_uniqueIS8_EES0_ISt17_Rb_tree_iteratorIS8_EbEOT_
	movq	-8(%rbp), %rbx
	leave
	.cfi_def_cfa 7, 8
	ret
	.cfi_endproc
.LFE3358:
	.size	_ZNSt3mapImNSt7__cxx1112basic_stringIcSt11char_traitsIcESaIcEEESt4lessImESaISt4pairIKmS5_EEE6insertEOSA_, .-_ZNSt3mapImNSt7__cxx1112basic_stringIcSt11char_traitsIcESaIcEEESt4lessImESaISt4pairIKmS5_EEE6insertEOSA_
	.section	.text._ZNSt8_Rb_treeImSt4pairIKmNSt7__cxx1112basic_stringIcSt11char_traitsIcESaIcEEEESt10_Select1stIS8_ESt4lessImESaIS8_EE8_M_beginEv,"axG",@progbits,_ZNSt8_Rb_treeImSt4pairIKmNSt7__cxx1112basic_stringIcSt11char_traitsIcESaIcEEEESt10_Select1stIS8_ESt4lessImESaIS8_EE8_M_beginEv,comdat
	.align 2
	.weak	_ZNSt8_Rb_treeImSt4pairIKmNSt7__cxx1112basic_stringIcSt11char_traitsIcESaIcEEEESt10_Select1stIS8_ESt4lessImESaIS8_EE8_M_beginEv
	.type	_ZNSt8_Rb_treeImSt4pairIKmNSt7__cxx1112basic_stringIcSt11char_traitsIcESaIcEEEESt10_Select1stIS8_ESt4lessImESaIS8_EE8_M_beginEv, @function
_ZNSt8_Rb_treeImSt4pairIKmNSt7__cxx1112basic_stringIcSt11char_traitsIcESaIcEEEESt10_Select1stIS8_ESt4lessImESaIS8_EE8_M_beginEv:
.LFB3447:
	.cfi_startproc
	endbr64
	pushq	%rbp
	.cfi_def_cfa_offset 16
	.cfi_offset 6, -16
	movq	%rsp, %rbp
	.cfi_def_cfa_register 6
	subq	$16, %rsp
	movq	%rdi, -8(%rbp)
	movq	-8(%rbp), %rax
	movq	%rax, %rdi
	call	_ZNKSt8_Rb_treeImSt4pairIKmNSt7__cxx1112basic_stringIcSt11char_traitsIcESaIcEEEESt10_Select1stIS8_ESt4lessImESaIS8_EE9_M_mbeginEv
	leave
	.cfi_def_cfa 7, 8
	ret
	.cfi_endproc
.LFE3447:
	.size	_ZNSt8_Rb_treeImSt4pairIKmNSt7__cxx1112basic_stringIcSt11char_traitsIcESaIcEEEESt10_Select1stIS8_ESt4lessImESaIS8_EE8_M_beginEv, .-_ZNSt8_Rb_treeImSt4pairIKmNSt7__cxx1112basic_stringIcSt11char_traitsIcESaIcEEEESt10_Select1stIS8_ESt4lessImESaIS8_EE8_M_beginEv
	.section	.text._ZSt4moveIRNSt7__cxx1112basic_stringIcSt11char_traitsIcESaIcEEEEONSt16remove_referenceIT_E4typeEOS8_,"axG",@progbits,_ZSt4moveIRNSt7__cxx1112basic_stringIcSt11char_traitsIcESaIcEEEEONSt16remove_referenceIT_E4typeEOS8_,comdat
	.weak	_ZSt4moveIRNSt7__cxx1112basic_stringIcSt11char_traitsIcESaIcEEEEONSt16remove_referenceIT_E4typeEOS8_
	.type	_ZSt4moveIRNSt7__cxx1112basic_stringIcSt11char_traitsIcESaIcEEEEONSt16remove_referenceIT_E4typeEOS8_, @function
_ZSt4moveIRNSt7__cxx1112basic_stringIcSt11char_traitsIcESaIcEEEEONSt16remove_referenceIT_E4typeEOS8_:
.LFB3451:
	.cfi_startproc
	endbr64
	pushq	%rbp
	.cfi_def_cfa_offset 16
	.cfi_offset 6, -16
	movq	%rsp, %rbp
	.cfi_def_cfa_register 6
	movq	%rdi, -8(%rbp)
	movq	-8(%rbp), %rax
	popq	%rbp
	.cfi_def_cfa 7, 8
	ret
	.cfi_endproc
.LFE3451:
	.size	_ZSt4moveIRNSt7__cxx1112basic_stringIcSt11char_traitsIcESaIcEEEEONSt16remove_referenceIT_E4typeEOS8_, .-_ZSt4moveIRNSt7__cxx1112basic_stringIcSt11char_traitsIcESaIcEEEEONSt16remove_referenceIT_E4typeEOS8_
	.section	.text._ZNKSt8_Rb_treeImSt4pairIKmNSt7__cxx1112basic_stringIcSt11char_traitsIcESaIcEEEESt10_Select1stIS8_ESt4lessImESaIS8_EE5emptyEv,"axG",@progbits,_ZNKSt8_Rb_treeImSt4pairIKmNSt7__cxx1112basic_stringIcSt11char_traitsIcESaIcEEEESt10_Select1stIS8_ESt4lessImESaIS8_EE5emptyEv,comdat
	.align 2
	.weak	_ZNKSt8_Rb_treeImSt4pairIKmNSt7__cxx1112basic_stringIcSt11char_traitsIcESaIcEEEESt10_Select1stIS8_ESt4lessImESaIS8_EE5emptyEv
	.type	_ZNKSt8_Rb_treeImSt4pairIKmNSt7__cxx1112basic_stringIcSt11char_traitsIcESaIcEEEESt10_Select1stIS8_ESt4lessImESaIS8_EE5emptyEv, @function
_ZNKSt8_Rb_treeImSt4pairIKmNSt7__cxx1112basic_stringIcSt11char_traitsIcESaIcEEEESt10_Select1stIS8_ESt4lessImESaIS8_EE5emptyEv:
.LFB3457:
	.cfi_startproc
	endbr64
	pushq	%rbp
	.cfi_def_cfa_offset 16
	.cfi_offset 6, -16
	movq	%rsp, %rbp
	.cfi_def_cfa_register 6
	movq	%rdi, -8(%rbp)
	movq	-8(%rbp), %rax
	movq	40(%rax), %rax
	testq	%rax, %rax
	sete	%al
	popq	%rbp
	.cfi_def_cfa 7, 8
	ret
	.cfi_endproc
.LFE3457:
	.size	_ZNKSt8_Rb_treeImSt4pairIKmNSt7__cxx1112basic_stringIcSt11char_traitsIcESaIcEEEESt10_Select1stIS8_ESt4lessImESaIS8_EE5emptyEv, .-_ZNKSt8_Rb_treeImSt4pairIKmNSt7__cxx1112basic_stringIcSt11char_traitsIcESaIcEEEESt10_Select1stIS8_ESt4lessImESaIS8_EE5emptyEv
	.section	.text._ZNSt8_Rb_treeImSt4pairIKmNSt7__cxx1112basic_stringIcSt11char_traitsIcESaIcEEEESt10_Select1stIS8_ESt4lessImESaIS8_EE5beginEv,"axG",@progbits,_ZNSt8_Rb_treeImSt4pairIKmNSt7__cxx1112basic_stringIcSt11char_traitsIcESaIcEEEESt10_Select1stIS8_ESt4lessImESaIS8_EE5beginEv,comdat
	.align 2
	.weak	_ZNSt8_Rb_treeImSt4pairIKmNSt7__cxx1112basic_stringIcSt11char_traitsIcESaIcEEEESt10_Select1stIS8_ESt4lessImESaIS8_EE5beginEv
	.type	_ZNSt8_Rb_treeImSt4pairIKmNSt7__cxx1112basic_stringIcSt11char_traitsIcESaIcEEEESt10_Select1stIS8_ESt4lessImESaIS8_EE5beginEv, @function
_ZNSt8_Rb_treeImSt4pairIKmNSt7__cxx1112basic_stringIcSt11char_traitsIcESaIcEEEESt10_Select1stIS8_ESt4lessImESaIS8_EE5beginEv:
.LFB3458:
	.cfi_startproc
	endbr64
	pushq	%rbp
	.cfi_def_cfa_offset 16
	.cfi_offset 6, -16
	movq	%rsp, %rbp
	.cfi_def_cfa_register 6
	subq	$32, %rsp
	movq	%rdi, -24(%rbp)
	movq	%fs:40, %rax
	movq	%rax, -8(%rbp)
	xorl	%eax, %eax
	movq	-24(%rbp), %rax
	movq	24(%rax), %rdx
	leaq	-16(%rbp), %rax
	movq	%rdx, %rsi
	movq	%rax, %rdi
	call	_ZNSt17_Rb_tree_iteratorISt4pairIKmNSt7__cxx1112basic_stringIcSt11char_traitsIcESaIcEEEEEC1EPSt18_Rb_tree_node_base
	movq	-16(%rbp), %rax
	movq	-8(%rbp), %rdx
	subq	%fs:40, %rdx
	je	.L93
	call	__stack_chk_fail@PLT
.L93:
	leave
	.cfi_def_cfa 7, 8
	ret
	.cfi_endproc
.LFE3458:
	.size	_ZNSt8_Rb_treeImSt4pairIKmNSt7__cxx1112basic_stringIcSt11char_traitsIcESaIcEEEESt10_Select1stIS8_ESt4lessImESaIS8_EE5beginEv, .-_ZNSt8_Rb_treeImSt4pairIKmNSt7__cxx1112basic_stringIcSt11char_traitsIcESaIcEEEESt10_Select1stIS8_ESt4lessImESaIS8_EE5beginEv
	.section	.text._ZNSt13_Rb_tree_nodeISt4pairIKmNSt7__cxx1112basic_stringIcSt11char_traitsIcESaIcEEEEE9_M_valptrEv,"axG",@progbits,_ZNSt13_Rb_tree_nodeISt4pairIKmNSt7__cxx1112basic_stringIcSt11char_traitsIcESaIcEEEEE9_M_valptrEv,comdat
	.align 2
	.weak	_ZNSt13_Rb_tree_nodeISt4pairIKmNSt7__cxx1112basic_stringIcSt11char_traitsIcESaIcEEEEE9_M_valptrEv
	.type	_ZNSt13_Rb_tree_nodeISt4pairIKmNSt7__cxx1112basic_stringIcSt11char_traitsIcESaIcEEEEE9_M_valptrEv, @function
_ZNSt13_Rb_tree_nodeISt4pairIKmNSt7__cxx1112basic_stringIcSt11char_traitsIcESaIcEEEEE9_M_valptrEv:
.LFB3459:
	.cfi_startproc
	endbr64
	pushq	%rbp
	.cfi_def_cfa_offset 16
	.cfi_offset 6, -16
	movq	%rsp, %rbp
	.cfi_def_cfa_register 6
	subq	$16, %rsp
	movq	%rdi, -8(%rbp)
	movq	-8(%rbp), %rax
	addq	$32, %rax
	movq	%rax, %rdi
	call	_ZN9__gnu_cxx16__aligned_membufISt4pairIKmNSt7__cxx1112basic_stringIcSt11char_traitsIcESaIcEEEEE6_M_ptrEv
	leave
	.cfi_def_cfa 7, 8
	ret
	.cfi_endproc
.LFE3459:
	.size	_ZNSt13_Rb_tree_nodeISt4pairIKmNSt7__cxx1112basic_stringIcSt11char_traitsIcESaIcEEEEE9_M_valptrEv, .-_ZNSt13_Rb_tree_nodeISt4pairIKmNSt7__cxx1112basic_stringIcSt11char_traitsIcESaIcEEEEE9_M_valptrEv
	.section	.text._ZNSt8_Rb_treeImSt4pairIKmNSt7__cxx1112basic_stringIcSt11char_traitsIcESaIcEEEESt10_Select1stIS8_ESt4lessImESaIS8_EE5eraseB5cxx11ESt17_Rb_tree_iteratorIS8_E,"axG",@progbits,_ZNSt8_Rb_treeImSt4pairIKmNSt7__cxx1112basic_stringIcSt11char_traitsIcESaIcEEEESt10_Select1stIS8_ESt4lessImESaIS8_EE5eraseB5cxx11ESt17_Rb_tree_iteratorIS8_E,comdat
	.align 2
	.weak	_ZNSt8_Rb_treeImSt4pairIKmNSt7__cxx1112basic_stringIcSt11char_traitsIcESaIcEEEESt10_Select1stIS8_ESt4lessImESaIS8_EE5eraseB5cxx11ESt17_Rb_tree_iteratorIS8_E
	.type	_ZNSt8_Rb_treeImSt4pairIKmNSt7__cxx1112basic_stringIcSt11char_traitsIcESaIcEEEESt10_Select1stIS8_ESt4lessImESaIS8_EE5eraseB5cxx11ESt17_Rb_tree_iteratorIS8_E, @function
_ZNSt8_Rb_treeImSt4pairIKmNSt7__cxx1112basic_stringIcSt11char_traitsIcESaIcEEEESt10_Select1stIS8_ESt4lessImESaIS8_EE5eraseB5cxx11ESt17_Rb_tree_iteratorIS8_E:
.LFB3460:
	.cfi_startproc
	endbr64
	pushq	%rbp
	.cfi_def_cfa_offset 16
	.cfi_offset 6, -16
	movq	%rsp, %rbp
	.cfi_def_cfa_register 6
	subq	$48, %rsp
	movq	%rdi, -40(%rbp)
	movq	%rsi, -48(%rbp)
	movq	%fs:40, %rax
	movq	%rax, -8(%rbp)
	xorl	%eax, %eax
	movl	$0, %eax
	testb	%al, %al
	movq	-48(%rbp), %rax
	movq	%rax, -24(%rbp)
	leaq	-24(%rbp), %rax
	movq	%rax, %rdi
	call	_ZNSt17_Rb_tree_iteratorISt4pairIKmNSt7__cxx1112basic_stringIcSt11char_traitsIcESaIcEEEEEppEv
	leaq	-48(%rbp), %rdx
	leaq	-16(%rbp), %rax
	movq	%rdx, %rsi
	movq	%rax, %rdi
	call	_ZNSt23_Rb_tree_const_iteratorISt4pairIKmNSt7__cxx1112basic_stringIcSt11char_traitsIcESaIcEEEEEC1ERKSt17_Rb_tree_iteratorIS8_E
	movq	-16(%rbp), %rdx
	movq	-40(%rbp), %rax
	movq	%rdx, %rsi
	movq	%rax, %rdi
	call	_ZNSt8_Rb_treeImSt4pairIKmNSt7__cxx1112basic_stringIcSt11char_traitsIcESaIcEEEESt10_Select1stIS8_ESt4lessImESaIS8_EE12_M_erase_auxESt23_Rb_tree_const_iteratorIS8_E
	movq	-24(%rbp), %rax
	movq	-8(%rbp), %rdx
	subq	%fs:40, %rdx
	je	.L99
	call	__stack_chk_fail@PLT
.L99:
	leave
	.cfi_def_cfa 7, 8
	ret
	.cfi_endproc
.LFE3460:
	.size	_ZNSt8_Rb_treeImSt4pairIKmNSt7__cxx1112basic_stringIcSt11char_traitsIcESaIcEEEESt10_Select1stIS8_ESt4lessImESaIS8_EE5eraseB5cxx11ESt17_Rb_tree_iteratorIS8_E, .-_ZNSt8_Rb_treeImSt4pairIKmNSt7__cxx1112basic_stringIcSt11char_traitsIcESaIcEEEESt10_Select1stIS8_ESt4lessImESaIS8_EE5eraseB5cxx11ESt17_Rb_tree_iteratorIS8_E
	.section	.text._ZSt7forwardIRmEOT_RNSt16remove_referenceIS1_E4typeE,"axG",@progbits,_ZSt7forwardIRmEOT_RNSt16remove_referenceIS1_E4typeE,comdat
	.weak	_ZSt7forwardIRmEOT_RNSt16remove_referenceIS1_E4typeE
	.type	_ZSt7forwardIRmEOT_RNSt16remove_referenceIS1_E4typeE, @function
_ZSt7forwardIRmEOT_RNSt16remove_referenceIS1_E4typeE:
.LFB3473:
	.cfi_startproc
	endbr64
	pushq	%rbp
	.cfi_def_cfa_offset 16
	.cfi_offset 6, -16
	movq	%rsp, %rbp
	.cfi_def_cfa_register 6
	movq	%rdi, -8(%rbp)
	movq	-8(%rbp), %rax
	popq	%rbp
	.cfi_def_cfa 7, 8
	ret
	.cfi_endproc
.LFE3473:
	.size	_ZSt7forwardIRmEOT_RNSt16remove_referenceIS1_E4typeE, .-_ZSt7forwardIRmEOT_RNSt16remove_referenceIS1_E4typeE
	.section	.text._ZSt7forwardIRNSt7__cxx1112basic_stringIcSt11char_traitsIcESaIcEEEEOT_RNSt16remove_referenceIS7_E4typeE,"axG",@progbits,_ZSt7forwardIRNSt7__cxx1112basic_stringIcSt11char_traitsIcESaIcEEEEOT_RNSt16remove_referenceIS7_E4typeE,comdat
	.weak	_ZSt7forwardIRNSt7__cxx1112basic_stringIcSt11char_traitsIcESaIcEEEEOT_RNSt16remove_referenceIS7_E4typeE
	.type	_ZSt7forwardIRNSt7__cxx1112basic_stringIcSt11char_traitsIcESaIcEEEEOT_RNSt16remove_referenceIS7_E4typeE, @function
_ZSt7forwardIRNSt7__cxx1112basic_stringIcSt11char_traitsIcESaIcEEEEOT_RNSt16remove_referenceIS7_E4typeE:
.LFB3474:
	.cfi_startproc
	endbr64
	pushq	%rbp
	.cfi_def_cfa_offset 16
	.cfi_offset 6, -16
	movq	%rsp, %rbp
	.cfi_def_cfa_register 6
	movq	%rdi, -8(%rbp)
	movq	-8(%rbp), %rax
	popq	%rbp
	.cfi_def_cfa 7, 8
	ret
	.cfi_endproc
.LFE3474:
	.size	_ZSt7forwardIRNSt7__cxx1112basic_stringIcSt11char_traitsIcESaIcEEEEOT_RNSt16remove_referenceIS7_E4typeE, .-_ZSt7forwardIRNSt7__cxx1112basic_stringIcSt11char_traitsIcESaIcEEEEOT_RNSt16remove_referenceIS7_E4typeE
	.section	.text._ZSt7forwardISt4pairImNSt7__cxx1112basic_stringIcSt11char_traitsIcESaIcEEEEEOT_RNSt16remove_referenceIS8_E4typeE,"axG",@progbits,_ZSt7forwardISt4pairImNSt7__cxx1112basic_stringIcSt11char_traitsIcESaIcEEEEEOT_RNSt16remove_referenceIS8_E4typeE,comdat
	.weak	_ZSt7forwardISt4pairImNSt7__cxx1112basic_stringIcSt11char_traitsIcESaIcEEEEEOT_RNSt16remove_referenceIS8_E4typeE
	.type	_ZSt7forwardISt4pairImNSt7__cxx1112basic_stringIcSt11char_traitsIcESaIcEEEEEOT_RNSt16remove_referenceIS8_E4typeE, @function
_ZSt7forwardISt4pairImNSt7__cxx1112basic_stringIcSt11char_traitsIcESaIcEEEEEOT_RNSt16remove_referenceIS8_E4typeE:
.LFB3475:
	.cfi_startproc
	endbr64
	pushq	%rbp
	.cfi_def_cfa_offset 16
	.cfi_offset 6, -16
	movq	%rsp, %rbp
	.cfi_def_cfa_register 6
	movq	%rdi, -8(%rbp)
	movq	-8(%rbp), %rax
	popq	%rbp
	.cfi_def_cfa 7, 8
	ret
	.cfi_endproc
.LFE3475:
	.size	_ZSt7forwardISt4pairImNSt7__cxx1112basic_stringIcSt11char_traitsIcESaIcEEEEEOT_RNSt16remove_referenceIS8_E4typeE, .-_ZSt7forwardISt4pairImNSt7__cxx1112basic_stringIcSt11char_traitsIcESaIcEEEEEOT_RNSt16remove_referenceIS8_E4typeE
	.section	.text._ZNSt8_Rb_treeImSt4pairIKmNSt7__cxx1112basic_stringIcSt11char_traitsIcESaIcEEEESt10_Select1stIS8_ESt4lessImESaIS8_EE17_M_emplace_uniqueIJS0_ImS7_EEEES0_ISt17_Rb_tree_iteratorIS8_EbEDpOT_,"axG",@progbits,_ZNSt8_Rb_treeImSt4pairIKmNSt7__cxx1112basic_stringIcSt11char_traitsIcESaIcEEEESt10_Select1stIS8_ESt4lessImESaIS8_EE17_M_emplace_uniqueIJS0_ImS7_EEEES0_ISt17_Rb_tree_iteratorIS8_EbEDpOT_,comdat
	.align 2
	.weak	_ZNSt8_Rb_treeImSt4pairIKmNSt7__cxx1112basic_stringIcSt11char_traitsIcESaIcEEEESt10_Select1stIS8_ESt4lessImESaIS8_EE17_M_emplace_uniqueIJS0_ImS7_EEEES0_ISt17_Rb_tree_iteratorIS8_EbEDpOT_
	.type	_ZNSt8_Rb_treeImSt4pairIKmNSt7__cxx1112basic_stringIcSt11char_traitsIcESaIcEEEESt10_Select1stIS8_ESt4lessImESaIS8_EE17_M_emplace_uniqueIJS0_ImS7_EEEES0_ISt17_Rb_tree_iteratorIS8_EbEDpOT_, @function
_ZNSt8_Rb_treeImSt4pairIKmNSt7__cxx1112basic_stringIcSt11char_traitsIcESaIcEEEESt10_Select1stIS8_ESt4lessImESaIS8_EE17_M_emplace_uniqueIJS0_ImS7_EEEES0_ISt17_Rb_tree_iteratorIS8_EbEDpOT_:
.LFB3476:
	.cfi_startproc
	.cfi_personality 0x9b,DW.ref.__gxx_personality_v0
	.cfi_lsda 0x1b,.LLSDA3476
	endbr64
	pushq	%rbp
	.cfi_def_cfa_offset 16
	.cfi_offset 6, -16
	movq	%rsp, %rbp
	.cfi_def_cfa_register 6
	pushq	%rbx
	subq	$104, %rsp
	.cfi_offset 3, -24
	movq	%rdi, -104(%rbp)
	movq	%rsi, -112(%rbp)
	movq	%fs:40, %rax
	movq	%rax, -24(%rbp)
	xorl	%eax, %eax
	movq	-112(%rbp), %rax
	movq	%rax, %rdi
	call	_ZSt7forwardISt4pairImNSt7__cxx1112basic_stringIcSt11char_traitsIcESaIcEEEEEOT_RNSt16remove_referenceIS8_E4typeE
	movq	%rax, %rdx
	movq	-104(%rbp), %rax
	movq	%rdx, %rsi
	movq	%rax, %rdi
.LEHB17:
	call	_ZNSt8_Rb_treeImSt4pairIKmNSt7__cxx1112basic_stringIcSt11char_traitsIcESaIcEEEESt10_Select1stIS8_ESt4lessImESaIS8_EE14_M_create_nodeIJS0_ImS7_EEEEPSt13_Rb_tree_nodeIS8_EDpOT_
.LEHE17:
	movq	%rax, -72(%rbp)
	movq	-72(%rbp), %rax
	movq	%rax, %rdi
.LEHB18:
	call	_ZNSt8_Rb_treeImSt4pairIKmNSt7__cxx1112basic_stringIcSt11char_traitsIcESaIcEEEESt10_Select1stIS8_ESt4lessImESaIS8_EE6_S_keyEPKSt13_Rb_tree_nodeIS8_E
	movq	%rax, %rdx
	movq	-104(%rbp), %rax
	movq	%rdx, %rsi
	movq	%rax, %rdi
	call	_ZNSt8_Rb_treeImSt4pairIKmNSt7__cxx1112basic_stringIcSt11char_traitsIcESaIcEEEESt10_Select1stIS8_ESt4lessImESaIS8_EE24_M_get_insert_unique_posERS1_
	movq	%rax, -64(%rbp)
	movq	%rdx, -56(%rbp)
	movq	-56(%rbp), %rax
	testq	%rax, %rax
	je	.L107
	movb	$1, -81(%rbp)
	movq	-56(%rbp), %rdx
	movq	-64(%rbp), %rsi
	movq	-72(%rbp), %rcx
	movq	-104(%rbp), %rax
	movq	%rax, %rdi
	call	_ZNSt8_Rb_treeImSt4pairIKmNSt7__cxx1112basic_stringIcSt11char_traitsIcESaIcEEEESt10_Select1stIS8_ESt4lessImESaIS8_EE14_M_insert_nodeEPSt18_Rb_tree_node_baseSG_PSt13_Rb_tree_nodeIS8_E
.LEHE18:
	movq	%rax, -80(%rbp)
	leaq	-81(%rbp), %rdx
	leaq	-80(%rbp), %rcx
	leaq	-48(%rbp), %rax
	movq	%rcx, %rsi
	movq	%rax, %rdi
	call	_ZNSt4pairISt17_Rb_tree_iteratorIS_IKmNSt7__cxx1112basic_stringIcSt11char_traitsIcESaIcEEEEEbEC1IS9_bLb1EEEOT_OT0_
	movq	-48(%rbp), %rax
	movq	-40(%rbp), %rdx
	jmp	.L109
.L107:
	movq	-72(%rbp), %rdx
	movq	-104(%rbp), %rax
	movq	%rdx, %rsi
	movq	%rax, %rdi
	call	_ZNSt8_Rb_treeImSt4pairIKmNSt7__cxx1112basic_stringIcSt11char_traitsIcESaIcEEEESt10_Select1stIS8_ESt4lessImESaIS8_EE12_M_drop_nodeEPSt13_Rb_tree_nodeIS8_E
	movb	$0, -81(%rbp)
	movq	-64(%rbp), %rdx
	leaq	-80(%rbp), %rax
	movq	%rdx, %rsi
	movq	%rax, %rdi
	call	_ZNSt17_Rb_tree_iteratorISt4pairIKmNSt7__cxx1112basic_stringIcSt11char_traitsIcESaIcEEEEEC1EPSt18_Rb_tree_node_base
	leaq	-81(%rbp), %rdx
	leaq	-80(%rbp), %rcx
	leaq	-48(%rbp), %rax
	movq	%rcx, %rsi
	movq	%rax, %rdi
	call	_ZNSt4pairISt17_Rb_tree_iteratorIS_IKmNSt7__cxx1112basic_stringIcSt11char_traitsIcESaIcEEEEEbEC1IS9_bLb1EEEOT_OT0_
	movq	-48(%rbp), %rax
	movq	-40(%rbp), %rdx
.L109:
	movq	-24(%rbp), %rcx
	subq	%fs:40, %rcx
	je	.L112
	jmp	.L115
.L113:
	endbr64
	movq	%rax, %rdi
	call	__cxa_begin_catch@PLT
	movq	-72(%rbp), %rdx
	movq	-104(%rbp), %rax
	movq	%rdx, %rsi
	movq	%rax, %rdi
	call	_ZNSt8_Rb_treeImSt4pairIKmNSt7__cxx1112basic_stringIcSt11char_traitsIcESaIcEEEESt10_Select1stIS8_ESt4lessImESaIS8_EE12_M_drop_nodeEPSt13_Rb_tree_nodeIS8_E
.LEHB19:
	call	__cxa_rethrow@PLT
.LEHE19:
.L114:
	endbr64
	movq	%rax, %rbx
	call	__cxa_end_catch@PLT
	movq	%rbx, %rax
	movq	%rax, %rdi
.LEHB20:
	call	_Unwind_Resume@PLT
.LEHE20:
.L115:
	call	__stack_chk_fail@PLT
.L112:
	movq	-8(%rbp), %rbx
	leave
	.cfi_def_cfa 7, 8
	ret
	.cfi_endproc
.LFE3476:
	.section	.gcc_except_table
	.align 4
.LLSDA3476:
	.byte	0xff
	.byte	0x9b
	.uleb128 .LLSDATT3476-.LLSDATTD3476
.LLSDATTD3476:
	.byte	0x1
	.uleb128 .LLSDACSE3476-.LLSDACSB3476
.LLSDACSB3476:
	.uleb128 .LEHB17-.LFB3476
	.uleb128 .LEHE17-.LEHB17
	.uleb128 0
	.uleb128 0
	.uleb128 .LEHB18-.LFB3476
	.uleb128 .LEHE18-.LEHB18
	.uleb128 .L113-.LFB3476
	.uleb128 0x1
	.uleb128 .LEHB19-.LFB3476
	.uleb128 .LEHE19-.LEHB19
	.uleb128 .L114-.LFB3476
	.uleb128 0
	.uleb128 .LEHB20-.LFB3476
	.uleb128 .LEHE20-.LEHB20
	.uleb128 0
	.uleb128 0
.LLSDACSE3476:
	.byte	0x1
	.byte	0
	.align 4
	.long	0

.LLSDATT3476:
	.section	.text._ZNSt8_Rb_treeImSt4pairIKmNSt7__cxx1112basic_stringIcSt11char_traitsIcESaIcEEEESt10_Select1stIS8_ESt4lessImESaIS8_EE17_M_emplace_uniqueIJS0_ImS7_EEEES0_ISt17_Rb_tree_iteratorIS8_EbEDpOT_,"axG",@progbits,_ZNSt8_Rb_treeImSt4pairIKmNSt7__cxx1112basic_stringIcSt11char_traitsIcESaIcEEEESt10_Select1stIS8_ESt4lessImESaIS8_EE17_M_emplace_uniqueIJS0_ImS7_EEEES0_ISt17_Rb_tree_iteratorIS8_EbEDpOT_,comdat
	.size	_ZNSt8_Rb_treeImSt4pairIKmNSt7__cxx1112basic_stringIcSt11char_traitsIcESaIcEEEESt10_Select1stIS8_ESt4lessImESaIS8_EE17_M_emplace_uniqueIJS0_ImS7_EEEES0_ISt17_Rb_tree_iteratorIS8_EbEDpOT_, .-_ZNSt8_Rb_treeImSt4pairIKmNSt7__cxx1112basic_stringIcSt11char_traitsIcESaIcEEEESt10_Select1stIS8_ESt4lessImESaIS8_EE17_M_emplace_uniqueIJS0_ImS7_EEEES0_ISt17_Rb_tree_iteratorIS8_EbEDpOT_
	.section	.text._ZNSt8_Rb_treeImSt4pairIKmNSt7__cxx1112basic_stringIcSt11char_traitsIcESaIcEEEESt10_Select1stIS8_ESt4lessImESaIS8_EE3endEv,"axG",@progbits,_ZNSt8_Rb_treeImSt4pairIKmNSt7__cxx1112basic_stringIcSt11char_traitsIcESaIcEEEESt10_Select1stIS8_ESt4lessImESaIS8_EE3endEv,comdat
	.align 2
	.weak	_ZNSt8_Rb_treeImSt4pairIKmNSt7__cxx1112basic_stringIcSt11char_traitsIcESaIcEEEESt10_Select1stIS8_ESt4lessImESaIS8_EE3endEv
	.type	_ZNSt8_Rb_treeImSt4pairIKmNSt7__cxx1112basic_stringIcSt11char_traitsIcESaIcEEEESt10_Select1stIS8_ESt4lessImESaIS8_EE3endEv, @function
_ZNSt8_Rb_treeImSt4pairIKmNSt7__cxx1112basic_stringIcSt11char_traitsIcESaIcEEEESt10_Select1stIS8_ESt4lessImESaIS8_EE3endEv:
.LFB3485:
	.cfi_startproc
	endbr64
	pushq	%rbp
	.cfi_def_cfa_offset 16
	.cfi_offset 6, -16
	movq	%rsp, %rbp
	.cfi_def_cfa_register 6
	subq	$32, %rsp
	movq	%rdi, -24(%rbp)
	movq	%fs:40, %rax
	movq	%rax, -8(%rbp)
	xorl	%eax, %eax
	movq	-24(%rbp), %rax
	leaq	8(%rax), %rdx
	leaq	-16(%rbp), %rax
	movq	%rdx, %rsi
	movq	%rax, %rdi
	call	_ZNSt17_Rb_tree_iteratorISt4pairIKmNSt7__cxx1112basic_stringIcSt11char_traitsIcESaIcEEEEEC1EPSt18_Rb_tree_node_base
	movq	-16(%rbp), %rax
	movq	-8(%rbp), %rdx
	subq	%fs:40, %rdx
	je	.L118
	call	__stack_chk_fail@PLT
.L118:
	leave
	.cfi_def_cfa 7, 8
	ret
	.cfi_endproc
.LFE3485:
	.size	_ZNSt8_Rb_treeImSt4pairIKmNSt7__cxx1112basic_stringIcSt11char_traitsIcESaIcEEEESt10_Select1stIS8_ESt4lessImESaIS8_EE3endEv, .-_ZNSt8_Rb_treeImSt4pairIKmNSt7__cxx1112basic_stringIcSt11char_traitsIcESaIcEEEESt10_Select1stIS8_ESt4lessImESaIS8_EE3endEv
	.section	.text._ZSt4moveIRSt4pairIKmNSt7__cxx1112basic_stringIcSt11char_traitsIcESaIcEEEEEONSt16remove_referenceIT_E4typeEOSB_,"axG",@progbits,_ZSt4moveIRSt4pairIKmNSt7__cxx1112basic_stringIcSt11char_traitsIcESaIcEEEEEONSt16remove_referenceIT_E4typeEOSB_,comdat
	.weak	_ZSt4moveIRSt4pairIKmNSt7__cxx1112basic_stringIcSt11char_traitsIcESaIcEEEEEONSt16remove_referenceIT_E4typeEOSB_
	.type	_ZSt4moveIRSt4pairIKmNSt7__cxx1112basic_stringIcSt11char_traitsIcESaIcEEEEEONSt16remove_referenceIT_E4typeEOSB_, @function
_ZSt4moveIRSt4pairIKmNSt7__cxx1112basic_stringIcSt11char_traitsIcESaIcEEEEEONSt16remove_referenceIT_E4typeEOSB_:
.LFB3486:
	.cfi_startproc
	endbr64
	pushq	%rbp
	.cfi_def_cfa_offset 16
	.cfi_offset 6, -16
	movq	%rsp, %rbp
	.cfi_def_cfa_register 6
	movq	%rdi, -8(%rbp)
	movq	-8(%rbp), %rax
	popq	%rbp
	.cfi_def_cfa 7, 8
	ret
	.cfi_endproc
.LFE3486:
	.size	_ZSt4moveIRSt4pairIKmNSt7__cxx1112basic_stringIcSt11char_traitsIcESaIcEEEEEONSt16remove_referenceIT_E4typeEOSB_, .-_ZSt4moveIRSt4pairIKmNSt7__cxx1112basic_stringIcSt11char_traitsIcESaIcEEEEEONSt16remove_referenceIT_E4typeEOSB_
	.section	.text._ZNSt8_Rb_treeImSt4pairIKmNSt7__cxx1112basic_stringIcSt11char_traitsIcESaIcEEEESt10_Select1stIS8_ESt4lessImESaIS8_EE16_M_insert_uniqueIS8_EES0_ISt17_Rb_tree_iteratorIS8_EbEOT_,"axG",@progbits,_ZNSt8_Rb_treeImSt4pairIKmNSt7__cxx1112basic_stringIcSt11char_traitsIcESaIcEEEESt10_Select1stIS8_ESt4lessImESaIS8_EE16_M_insert_uniqueIS8_EES0_ISt17_Rb_tree_iteratorIS8_EbEOT_,comdat
	.align 2
	.weak	_ZNSt8_Rb_treeImSt4pairIKmNSt7__cxx1112basic_stringIcSt11char_traitsIcESaIcEEEESt10_Select1stIS8_ESt4lessImESaIS8_EE16_M_insert_uniqueIS8_EES0_ISt17_Rb_tree_iteratorIS8_EbEOT_
	.type	_ZNSt8_Rb_treeImSt4pairIKmNSt7__cxx1112basic_stringIcSt11char_traitsIcESaIcEEEESt10_Select1stIS8_ESt4lessImESaIS8_EE16_M_insert_uniqueIS8_EES0_ISt17_Rb_tree_iteratorIS8_EbEOT_, @function
_ZNSt8_Rb_treeImSt4pairIKmNSt7__cxx1112basic_stringIcSt11char_traitsIcESaIcEEEESt10_Select1stIS8_ESt4lessImESaIS8_EE16_M_insert_uniqueIS8_EES0_ISt17_Rb_tree_iteratorIS8_EbEOT_:
.LFB3487:
	.cfi_startproc
	endbr64
	pushq	%rbp
	.cfi_def_cfa_offset 16
	.cfi_offset 6, -16
	movq	%rsp, %rbp
	.cfi_def_cfa_register 6
	subq	$96, %rsp
	movq	%rdi, -88(%rbp)
	movq	%rsi, -96(%rbp)
	movq	%fs:40, %rax
	movq	%rax, -8(%rbp)
	xorl	%eax, %eax
	movq	-96(%rbp), %rdx
	leaq	-32(%rbp), %rax
	movq	%rdx, %rsi
	movq	%rax, %rdi
	call	_ZNKSt10_Select1stISt4pairIKmNSt7__cxx1112basic_stringIcSt11char_traitsIcESaIcEEEEEclERS8_
	movq	%rax, %rdx
	movq	-88(%rbp), %rax
	movq	%rdx, %rsi
	movq	%rax, %rdi
	call	_ZNSt8_Rb_treeImSt4pairIKmNSt7__cxx1112basic_stringIcSt11char_traitsIcESaIcEEEESt10_Select1stIS8_ESt4lessImESaIS8_EE24_M_get_insert_unique_posERS1_
	movq	%rax, -48(%rbp)
	movq	%rdx, -40(%rbp)
	movq	-40(%rbp), %rax
	testq	%rax, %rax
	je	.L122
	movq	-88(%rbp), %rdx
	leaq	-64(%rbp), %rax
	movq	%rdx, %rsi
	movq	%rax, %rdi
	call	_ZNSt8_Rb_treeImSt4pairIKmNSt7__cxx1112basic_stringIcSt11char_traitsIcESaIcEEEESt10_Select1stIS8_ESt4lessImESaIS8_EE11_Alloc_nodeC1ERSE_
	movb	$1, -65(%rbp)
	movq	-96(%rbp), %rax
	movq	%rax, %rdi
	call	_ZSt7forwardISt4pairIKmNSt7__cxx1112basic_stringIcSt11char_traitsIcESaIcEEEEEOT_RNSt16remove_referenceIS9_E4typeE
	movq	%rax, %rcx
	movq	-40(%rbp), %rdx
	movq	-48(%rbp), %rsi
	leaq	-64(%rbp), %rdi
	movq	-88(%rbp), %rax
	movq	%rdi, %r8
	movq	%rax, %rdi
	call	_ZNSt8_Rb_treeImSt4pairIKmNSt7__cxx1112basic_stringIcSt11char_traitsIcESaIcEEEESt10_Select1stIS8_ESt4lessImESaIS8_EE10_M_insert_IS8_NSE_11_Alloc_nodeEEESt17_Rb_tree_iteratorIS8_EPSt18_Rb_tree_node_baseSK_OT_RT0_
	movq	%rax, -56(%rbp)
	leaq	-65(%rbp), %rdx
	leaq	-56(%rbp), %rcx
	leaq	-32(%rbp), %rax
	movq	%rcx, %rsi
	movq	%rax, %rdi
	call	_ZNSt4pairISt17_Rb_tree_iteratorIS_IKmNSt7__cxx1112basic_stringIcSt11char_traitsIcESaIcEEEEEbEC1IS9_bLb1EEEOT_OT0_
	movq	-32(%rbp), %rax
	movq	-24(%rbp), %rdx
	jmp	.L124
.L122:
	movb	$0, -64(%rbp)
	movq	-48(%rbp), %rdx
	leaq	-56(%rbp), %rax
	movq	%rdx, %rsi
	movq	%rax, %rdi
	call	_ZNSt17_Rb_tree_iteratorISt4pairIKmNSt7__cxx1112basic_stringIcSt11char_traitsIcESaIcEEEEEC1EPSt18_Rb_tree_node_base
	leaq	-64(%rbp), %rdx
	leaq	-56(%rbp), %rcx
	leaq	-32(%rbp), %rax
	movq	%rcx, %rsi
	movq	%rax, %rdi
	call	_ZNSt4pairISt17_Rb_tree_iteratorIS_IKmNSt7__cxx1112basic_stringIcSt11char_traitsIcESaIcEEEEEbEC1IS9_bLb1EEEOT_OT0_
	movq	-32(%rbp), %rax
	movq	-24(%rbp), %rdx
.L124:
	movq	-8(%rbp), %rcx
	subq	%fs:40, %rcx
	je	.L125
	call	__stack_chk_fail@PLT
.L125:
	leave
	.cfi_def_cfa 7, 8
	ret
	.cfi_endproc
.LFE3487:
	.size	_ZNSt8_Rb_treeImSt4pairIKmNSt7__cxx1112basic_stringIcSt11char_traitsIcESaIcEEEESt10_Select1stIS8_ESt4lessImESaIS8_EE16_M_insert_uniqueIS8_EES0_ISt17_Rb_tree_iteratorIS8_EbEOT_, .-_ZNSt8_Rb_treeImSt4pairIKmNSt7__cxx1112basic_stringIcSt11char_traitsIcESaIcEEEESt10_Select1stIS8_ESt4lessImESaIS8_EE16_M_insert_uniqueIS8_EES0_ISt17_Rb_tree_iteratorIS8_EbEOT_
	.section	.text._ZNSt8_Rb_treeImSt4pairIKmNSt7__cxx1112basic_stringIcSt11char_traitsIcESaIcEEEESt10_Select1stIS8_ESt4lessImESaIS8_EE8_S_rightEPSt18_Rb_tree_node_base,"axG",@progbits,_ZNSt8_Rb_treeImSt4pairIKmNSt7__cxx1112basic_stringIcSt11char_traitsIcESaIcEEEESt10_Select1stIS8_ESt4lessImESaIS8_EE8_S_rightEPSt18_Rb_tree_node_base,comdat
	.weak	_ZNSt8_Rb_treeImSt4pairIKmNSt7__cxx1112basic_stringIcSt11char_traitsIcESaIcEEEESt10_Select1stIS8_ESt4lessImESaIS8_EE8_S_rightEPSt18_Rb_tree_node_base
	.type	_ZNSt8_Rb_treeImSt4pairIKmNSt7__cxx1112basic_stringIcSt11char_traitsIcESaIcEEEESt10_Select1stIS8_ESt4lessImESaIS8_EE8_S_rightEPSt18_Rb_tree_node_base, @function
_ZNSt8_Rb_treeImSt4pairIKmNSt7__cxx1112basic_stringIcSt11char_traitsIcESaIcEEEESt10_Select1stIS8_ESt4lessImESaIS8_EE8_S_rightEPSt18_Rb_tree_node_base:
.LFB3536:
	.cfi_startproc
	endbr64
	pushq	%rbp
	.cfi_def_cfa_offset 16
	.cfi_offset 6, -16
	movq	%rsp, %rbp
	.cfi_def_cfa_register 6
	movq	%rdi, -8(%rbp)
	movq	-8(%rbp), %rax
	movq	24(%rax), %rax
	popq	%rbp
	.cfi_def_cfa 7, 8
	ret
	.cfi_endproc
.LFE3536:
	.size	_ZNSt8_Rb_treeImSt4pairIKmNSt7__cxx1112basic_stringIcSt11char_traitsIcESaIcEEEESt10_Select1stIS8_ESt4lessImESaIS8_EE8_S_rightEPSt18_Rb_tree_node_base, .-_ZNSt8_Rb_treeImSt4pairIKmNSt7__cxx1112basic_stringIcSt11char_traitsIcESaIcEEEESt10_Select1stIS8_ESt4lessImESaIS8_EE8_S_rightEPSt18_Rb_tree_node_base
	.section	.text._ZNSt8_Rb_treeImSt4pairIKmNSt7__cxx1112basic_stringIcSt11char_traitsIcESaIcEEEESt10_Select1stIS8_ESt4lessImESaIS8_EE7_S_leftEPSt18_Rb_tree_node_base,"axG",@progbits,_ZNSt8_Rb_treeImSt4pairIKmNSt7__cxx1112basic_stringIcSt11char_traitsIcESaIcEEEESt10_Select1stIS8_ESt4lessImESaIS8_EE7_S_leftEPSt18_Rb_tree_node_base,comdat
	.weak	_ZNSt8_Rb_treeImSt4pairIKmNSt7__cxx1112basic_stringIcSt11char_traitsIcESaIcEEEESt10_Select1stIS8_ESt4lessImESaIS8_EE7_S_leftEPSt18_Rb_tree_node_base
	.type	_ZNSt8_Rb_treeImSt4pairIKmNSt7__cxx1112basic_stringIcSt11char_traitsIcESaIcEEEESt10_Select1stIS8_ESt4lessImESaIS8_EE7_S_leftEPSt18_Rb_tree_node_base, @function
_ZNSt8_Rb_treeImSt4pairIKmNSt7__cxx1112basic_stringIcSt11char_traitsIcESaIcEEEESt10_Select1stIS8_ESt4lessImESaIS8_EE7_S_leftEPSt18_Rb_tree_node_base:
.LFB3537:
	.cfi_startproc
	endbr64
	pushq	%rbp
	.cfi_def_cfa_offset 16
	.cfi_offset 6, -16
	movq	%rsp, %rbp
	.cfi_def_cfa_register 6
	movq	%rdi, -8(%rbp)
	movq	-8(%rbp), %rax
	movq	16(%rax), %rax
	popq	%rbp
	.cfi_def_cfa 7, 8
	ret
	.cfi_endproc
.LFE3537:
	.size	_ZNSt8_Rb_treeImSt4pairIKmNSt7__cxx1112basic_stringIcSt11char_traitsIcESaIcEEEESt10_Select1stIS8_ESt4lessImESaIS8_EE7_S_leftEPSt18_Rb_tree_node_base, .-_ZNSt8_Rb_treeImSt4pairIKmNSt7__cxx1112basic_stringIcSt11char_traitsIcESaIcEEEESt10_Select1stIS8_ESt4lessImESaIS8_EE7_S_leftEPSt18_Rb_tree_node_base
	.section	.text._ZNSt8_Rb_treeImSt4pairIKmNSt7__cxx1112basic_stringIcSt11char_traitsIcESaIcEEEESt10_Select1stIS8_ESt4lessImESaIS8_EE12_M_drop_nodeEPSt13_Rb_tree_nodeIS8_E,"axG",@progbits,_ZNSt8_Rb_treeImSt4pairIKmNSt7__cxx1112basic_stringIcSt11char_traitsIcESaIcEEEESt10_Select1stIS8_ESt4lessImESaIS8_EE12_M_drop_nodeEPSt13_Rb_tree_nodeIS8_E,comdat
	.align 2
	.weak	_ZNSt8_Rb_treeImSt4pairIKmNSt7__cxx1112basic_stringIcSt11char_traitsIcESaIcEEEESt10_Select1stIS8_ESt4lessImESaIS8_EE12_M_drop_nodeEPSt13_Rb_tree_nodeIS8_E
	.type	_ZNSt8_Rb_treeImSt4pairIKmNSt7__cxx1112basic_stringIcSt11char_traitsIcESaIcEEEESt10_Select1stIS8_ESt4lessImESaIS8_EE12_M_drop_nodeEPSt13_Rb_tree_nodeIS8_E, @function
_ZNSt8_Rb_treeImSt4pairIKmNSt7__cxx1112basic_stringIcSt11char_traitsIcESaIcEEEESt10_Select1stIS8_ESt4lessImESaIS8_EE12_M_drop_nodeEPSt13_Rb_tree_nodeIS8_E:
.LFB3538:
	.cfi_startproc
	endbr64
	pushq	%rbp
	.cfi_def_cfa_offset 16
	.cfi_offset 6, -16
	movq	%rsp, %rbp
	.cfi_def_cfa_register 6
	subq	$16, %rsp
	movq	%rdi, -8(%rbp)
	movq	%rsi, -16(%rbp)
	movq	-16(%rbp), %rdx
	movq	-8(%rbp), %rax
	movq	%rdx, %rsi
	movq	%rax, %rdi
	call	_ZNSt8_Rb_treeImSt4pairIKmNSt7__cxx1112basic_stringIcSt11char_traitsIcESaIcEEEESt10_Select1stIS8_ESt4lessImESaIS8_EE15_M_destroy_nodeEPSt13_Rb_tree_nodeIS8_E
	movq	-16(%rbp), %rdx
	movq	-8(%rbp), %rax
	movq	%rdx, %rsi
	movq	%rax, %rdi
	call	_ZNSt8_Rb_treeImSt4pairIKmNSt7__cxx1112basic_stringIcSt11char_traitsIcESaIcEEEESt10_Select1stIS8_ESt4lessImESaIS8_EE11_M_put_nodeEPSt13_Rb_tree_nodeIS8_E
	nop
	leave
	.cfi_def_cfa 7, 8
	ret
	.cfi_endproc
.LFE3538:
	.size	_ZNSt8_Rb_treeImSt4pairIKmNSt7__cxx1112basic_stringIcSt11char_traitsIcESaIcEEEESt10_Select1stIS8_ESt4lessImESaIS8_EE12_M_drop_nodeEPSt13_Rb_tree_nodeIS8_E, .-_ZNSt8_Rb_treeImSt4pairIKmNSt7__cxx1112basic_stringIcSt11char_traitsIcESaIcEEEESt10_Select1stIS8_ESt4lessImESaIS8_EE12_M_drop_nodeEPSt13_Rb_tree_nodeIS8_E
	.section	.text._ZNKSt8_Rb_treeImSt4pairIKmNSt7__cxx1112basic_stringIcSt11char_traitsIcESaIcEEEESt10_Select1stIS8_ESt4lessImESaIS8_EE9_M_mbeginEv,"axG",@progbits,_ZNKSt8_Rb_treeImSt4pairIKmNSt7__cxx1112basic_stringIcSt11char_traitsIcESaIcEEEESt10_Select1stIS8_ESt4lessImESaIS8_EE9_M_mbeginEv,comdat
	.align 2
	.weak	_ZNKSt8_Rb_treeImSt4pairIKmNSt7__cxx1112basic_stringIcSt11char_traitsIcESaIcEEEESt10_Select1stIS8_ESt4lessImESaIS8_EE9_M_mbeginEv
	.type	_ZNKSt8_Rb_treeImSt4pairIKmNSt7__cxx1112basic_stringIcSt11char_traitsIcESaIcEEEESt10_Select1stIS8_ESt4lessImESaIS8_EE9_M_mbeginEv, @function
_ZNKSt8_Rb_treeImSt4pairIKmNSt7__cxx1112basic_stringIcSt11char_traitsIcESaIcEEEESt10_Select1stIS8_ESt4lessImESaIS8_EE9_M_mbeginEv:
.LFB3539:
	.cfi_startproc
	endbr64
	pushq	%rbp
	.cfi_def_cfa_offset 16
	.cfi_offset 6, -16
	movq	%rsp, %rbp
	.cfi_def_cfa_register 6
	movq	%rdi, -8(%rbp)
	movq	-8(%rbp), %rax
	movq	16(%rax), %rax
	popq	%rbp
	.cfi_def_cfa 7, 8
	ret
	.cfi_endproc
.LFE3539:
	.size	_ZNKSt8_Rb_treeImSt4pairIKmNSt7__cxx1112basic_stringIcSt11char_traitsIcESaIcEEEESt10_Select1stIS8_ESt4lessImESaIS8_EE9_M_mbeginEv, .-_ZNKSt8_Rb_treeImSt4pairIKmNSt7__cxx1112basic_stringIcSt11char_traitsIcESaIcEEEESt10_Select1stIS8_ESt4lessImESaIS8_EE9_M_mbeginEv
	.section	.text._ZNSt17_Rb_tree_iteratorISt4pairIKmNSt7__cxx1112basic_stringIcSt11char_traitsIcESaIcEEEEEC2EPSt18_Rb_tree_node_base,"axG",@progbits,_ZNSt17_Rb_tree_iteratorISt4pairIKmNSt7__cxx1112basic_stringIcSt11char_traitsIcESaIcEEEEEC5EPSt18_Rb_tree_node_base,comdat
	.align 2
	.weak	_ZNSt17_Rb_tree_iteratorISt4pairIKmNSt7__cxx1112basic_stringIcSt11char_traitsIcESaIcEEEEEC2EPSt18_Rb_tree_node_base
	.type	_ZNSt17_Rb_tree_iteratorISt4pairIKmNSt7__cxx1112basic_stringIcSt11char_traitsIcESaIcEEEEEC2EPSt18_Rb_tree_node_base, @function
_ZNSt17_Rb_tree_iteratorISt4pairIKmNSt7__cxx1112basic_stringIcSt11char_traitsIcESaIcEEEEEC2EPSt18_Rb_tree_node_base:
.LFB3545:
	.cfi_startproc
	endbr64
	pushq	%rbp
	.cfi_def_cfa_offset 16
	.cfi_offset 6, -16
	movq	%rsp, %rbp
	.cfi_def_cfa_register 6
	movq	%rdi, -8(%rbp)
	movq	%rsi, -16(%rbp)
	movq	-8(%rbp), %rax
	movq	-16(%rbp), %rdx
	movq	%rdx, (%rax)
	nop
	popq	%rbp
	.cfi_def_cfa 7, 8
	ret
	.cfi_endproc
.LFE3545:
	.size	_ZNSt17_Rb_tree_iteratorISt4pairIKmNSt7__cxx1112basic_stringIcSt11char_traitsIcESaIcEEEEEC2EPSt18_Rb_tree_node_base, .-_ZNSt17_Rb_tree_iteratorISt4pairIKmNSt7__cxx1112basic_stringIcSt11char_traitsIcESaIcEEEEEC2EPSt18_Rb_tree_node_base
	.weak	_ZNSt17_Rb_tree_iteratorISt4pairIKmNSt7__cxx1112basic_stringIcSt11char_traitsIcESaIcEEEEEC1EPSt18_Rb_tree_node_base
	.set	_ZNSt17_Rb_tree_iteratorISt4pairIKmNSt7__cxx1112basic_stringIcSt11char_traitsIcESaIcEEEEEC1EPSt18_Rb_tree_node_base,_ZNSt17_Rb_tree_iteratorISt4pairIKmNSt7__cxx1112basic_stringIcSt11char_traitsIcESaIcEEEEEC2EPSt18_Rb_tree_node_base
	.section	.text._ZN9__gnu_cxx16__aligned_membufISt4pairIKmNSt7__cxx1112basic_stringIcSt11char_traitsIcESaIcEEEEE6_M_ptrEv,"axG",@progbits,_ZN9__gnu_cxx16__aligned_membufISt4pairIKmNSt7__cxx1112basic_stringIcSt11char_traitsIcESaIcEEEEE6_M_ptrEv,comdat
	.align 2
	.weak	_ZN9__gnu_cxx16__aligned_membufISt4pairIKmNSt7__cxx1112basic_stringIcSt11char_traitsIcESaIcEEEEE6_M_ptrEv
	.type	_ZN9__gnu_cxx16__aligned_membufISt4pairIKmNSt7__cxx1112basic_stringIcSt11char_traitsIcESaIcEEEEE6_M_ptrEv, @function
_ZN9__gnu_cxx16__aligned_membufISt4pairIKmNSt7__cxx1112basic_stringIcSt11char_traitsIcESaIcEEEEE6_M_ptrEv:
.LFB3547:
	.cfi_startproc
	endbr64
	pushq	%rbp
	.cfi_def_cfa_offset 16
	.cfi_offset 6, -16
	movq	%rsp, %rbp
	.cfi_def_cfa_register 6
	subq	$16, %rsp
	movq	%rdi, -8(%rbp)
	movq	-8(%rbp), %rax
	movq	%rax, %rdi
	call	_ZN9__gnu_cxx16__aligned_membufISt4pairIKmNSt7__cxx1112basic_stringIcSt11char_traitsIcESaIcEEEEE7_M_addrEv
	leave
	.cfi_def_cfa 7, 8
	ret
	.cfi_endproc
.LFE3547:
	.size	_ZN9__gnu_cxx16__aligned_membufISt4pairIKmNSt7__cxx1112basic_stringIcSt11char_traitsIcESaIcEEEEE6_M_ptrEv, .-_ZN9__gnu_cxx16__aligned_membufISt4pairIKmNSt7__cxx1112basic_stringIcSt11char_traitsIcESaIcEEEEE6_M_ptrEv
	.section	.text._ZNSt17_Rb_tree_iteratorISt4pairIKmNSt7__cxx1112basic_stringIcSt11char_traitsIcESaIcEEEEEppEv,"axG",@progbits,_ZNSt17_Rb_tree_iteratorISt4pairIKmNSt7__cxx1112basic_stringIcSt11char_traitsIcESaIcEEEEEppEv,comdat
	.align 2
	.weak	_ZNSt17_Rb_tree_iteratorISt4pairIKmNSt7__cxx1112basic_stringIcSt11char_traitsIcESaIcEEEEEppEv
	.type	_ZNSt17_Rb_tree_iteratorISt4pairIKmNSt7__cxx1112basic_stringIcSt11char_traitsIcESaIcEEEEEppEv, @function
_ZNSt17_Rb_tree_iteratorISt4pairIKmNSt7__cxx1112basic_stringIcSt11char_traitsIcESaIcEEEEEppEv:
.LFB3548:
	.cfi_startproc
	endbr64
	pushq	%rbp
	.cfi_def_cfa_offset 16
	.cfi_offset 6, -16
	movq	%rsp, %rbp
	.cfi_def_cfa_register 6
	subq	$16, %rsp
	movq	%rdi, -8(%rbp)
	movq	-8(%rbp), %rax
	movq	(%rax), %rax
	movq	%rax, %rdi
	call	_ZSt18_Rb_tree_incrementPSt18_Rb_tree_node_base@PLT
	movq	-8(%rbp), %rdx
	movq	%rax, (%rdx)
	movq	-8(%rbp), %rax
	leave
	.cfi_def_cfa 7, 8
	ret
	.cfi_endproc
.LFE3548:
	.size	_ZNSt17_Rb_tree_iteratorISt4pairIKmNSt7__cxx1112basic_stringIcSt11char_traitsIcESaIcEEEEEppEv, .-_ZNSt17_Rb_tree_iteratorISt4pairIKmNSt7__cxx1112basic_stringIcSt11char_traitsIcESaIcEEEEEppEv
	.section	.text._ZNSt23_Rb_tree_const_iteratorISt4pairIKmNSt7__cxx1112basic_stringIcSt11char_traitsIcESaIcEEEEEC2ERKSt17_Rb_tree_iteratorIS8_E,"axG",@progbits,_ZNSt23_Rb_tree_const_iteratorISt4pairIKmNSt7__cxx1112basic_stringIcSt11char_traitsIcESaIcEEEEEC5ERKSt17_Rb_tree_iteratorIS8_E,comdat
	.align 2
	.weak	_ZNSt23_Rb_tree_const_iteratorISt4pairIKmNSt7__cxx1112basic_stringIcSt11char_traitsIcESaIcEEEEEC2ERKSt17_Rb_tree_iteratorIS8_E
	.type	_ZNSt23_Rb_tree_const_iteratorISt4pairIKmNSt7__cxx1112basic_stringIcSt11char_traitsIcESaIcEEEEEC2ERKSt17_Rb_tree_iteratorIS8_E, @function
_ZNSt23_Rb_tree_const_iteratorISt4pairIKmNSt7__cxx1112basic_stringIcSt11char_traitsIcESaIcEEEEEC2ERKSt17_Rb_tree_iteratorIS8_E:
.LFB3550:
	.cfi_startproc
	endbr64
	pushq	%rbp
	.cfi_def_cfa_offset 16
	.cfi_offset 6, -16
	movq	%rsp, %rbp
	.cfi_def_cfa_register 6
	movq	%rdi, -8(%rbp)
	movq	%rsi, -16(%rbp)
	movq	-16(%rbp), %rax
	movq	(%rax), %rdx
	movq	-8(%rbp), %rax
	movq	%rdx, (%rax)
	nop
	popq	%rbp
	.cfi_def_cfa 7, 8
	ret
	.cfi_endproc
.LFE3550:
	.size	_ZNSt23_Rb_tree_const_iteratorISt4pairIKmNSt7__cxx1112basic_stringIcSt11char_traitsIcESaIcEEEEEC2ERKSt17_Rb_tree_iteratorIS8_E, .-_ZNSt23_Rb_tree_const_iteratorISt4pairIKmNSt7__cxx1112basic_stringIcSt11char_traitsIcESaIcEEEEEC2ERKSt17_Rb_tree_iteratorIS8_E
	.weak	_ZNSt23_Rb_tree_const_iteratorISt4pairIKmNSt7__cxx1112basic_stringIcSt11char_traitsIcESaIcEEEEEC1ERKSt17_Rb_tree_iteratorIS8_E
	.set	_ZNSt23_Rb_tree_const_iteratorISt4pairIKmNSt7__cxx1112basic_stringIcSt11char_traitsIcESaIcEEEEEC1ERKSt17_Rb_tree_iteratorIS8_E,_ZNSt23_Rb_tree_const_iteratorISt4pairIKmNSt7__cxx1112basic_stringIcSt11char_traitsIcESaIcEEEEEC2ERKSt17_Rb_tree_iteratorIS8_E
	.section	.text._ZNSt8_Rb_treeImSt4pairIKmNSt7__cxx1112basic_stringIcSt11char_traitsIcESaIcEEEESt10_Select1stIS8_ESt4lessImESaIS8_EE12_M_erase_auxESt23_Rb_tree_const_iteratorIS8_E,"axG",@progbits,_ZNSt8_Rb_treeImSt4pairIKmNSt7__cxx1112basic_stringIcSt11char_traitsIcESaIcEEEESt10_Select1stIS8_ESt4lessImESaIS8_EE12_M_erase_auxESt23_Rb_tree_const_iteratorIS8_E,comdat
	.align 2
	.weak	_ZNSt8_Rb_treeImSt4pairIKmNSt7__cxx1112basic_stringIcSt11char_traitsIcESaIcEEEESt10_Select1stIS8_ESt4lessImESaIS8_EE12_M_erase_auxESt23_Rb_tree_const_iteratorIS8_E
	.type	_ZNSt8_Rb_treeImSt4pairIKmNSt7__cxx1112basic_stringIcSt11char_traitsIcESaIcEEEESt10_Select1stIS8_ESt4lessImESaIS8_EE12_M_erase_auxESt23_Rb_tree_const_iteratorIS8_E, @function
_ZNSt8_Rb_treeImSt4pairIKmNSt7__cxx1112basic_stringIcSt11char_traitsIcESaIcEEEESt10_Select1stIS8_ESt4lessImESaIS8_EE12_M_erase_auxESt23_Rb_tree_const_iteratorIS8_E:
.LFB3552:
	.cfi_startproc
	endbr64
	pushq	%rbp
	.cfi_def_cfa_offset 16
	.cfi_offset 6, -16
	movq	%rsp, %rbp
	.cfi_def_cfa_register 6
	subq	$32, %rsp
	movq	%rdi, -24(%rbp)
	movq	%rsi, -32(%rbp)
	movq	-24(%rbp), %rax
	leaq	8(%rax), %rdx
	movq	-32(%rbp), %rax
	movq	%rdx, %rsi
	movq	%rax, %rdi
	call	_ZSt28_Rb_tree_rebalance_for_erasePSt18_Rb_tree_node_baseRS_@PLT
	movq	%rax, -8(%rbp)
	movq	-8(%rbp), %rdx
	movq	-24(%rbp), %rax
	movq	%rdx, %rsi
	movq	%rax, %rdi
	call	_ZNSt8_Rb_treeImSt4pairIKmNSt7__cxx1112basic_stringIcSt11char_traitsIcESaIcEEEESt10_Select1stIS8_ESt4lessImESaIS8_EE12_M_drop_nodeEPSt13_Rb_tree_nodeIS8_E
	movq	-24(%rbp), %rax
	movq	40(%rax), %rax
	leaq	-1(%rax), %rdx
	movq	-24(%rbp), %rax
	movq	%rdx, 40(%rax)
	nop
	leave
	.cfi_def_cfa 7, 8
	ret
	.cfi_endproc
.LFE3552:
	.size	_ZNSt8_Rb_treeImSt4pairIKmNSt7__cxx1112basic_stringIcSt11char_traitsIcESaIcEEEESt10_Select1stIS8_ESt4lessImESaIS8_EE12_M_erase_auxESt23_Rb_tree_const_iteratorIS8_E, .-_ZNSt8_Rb_treeImSt4pairIKmNSt7__cxx1112basic_stringIcSt11char_traitsIcESaIcEEEESt10_Select1stIS8_ESt4lessImESaIS8_EE12_M_erase_auxESt23_Rb_tree_const_iteratorIS8_E
	.section	.text._ZNSt8_Rb_treeImSt4pairIKmNSt7__cxx1112basic_stringIcSt11char_traitsIcESaIcEEEESt10_Select1stIS8_ESt4lessImESaIS8_EE14_M_create_nodeIJS0_ImS7_EEEEPSt13_Rb_tree_nodeIS8_EDpOT_,"axG",@progbits,_ZNSt8_Rb_treeImSt4pairIKmNSt7__cxx1112basic_stringIcSt11char_traitsIcESaIcEEEESt10_Select1stIS8_ESt4lessImESaIS8_EE14_M_create_nodeIJS0_ImS7_EEEEPSt13_Rb_tree_nodeIS8_EDpOT_,comdat
	.align 2
	.weak	_ZNSt8_Rb_treeImSt4pairIKmNSt7__cxx1112basic_stringIcSt11char_traitsIcESaIcEEEESt10_Select1stIS8_ESt4lessImESaIS8_EE14_M_create_nodeIJS0_ImS7_EEEEPSt13_Rb_tree_nodeIS8_EDpOT_
	.type	_ZNSt8_Rb_treeImSt4pairIKmNSt7__cxx1112basic_stringIcSt11char_traitsIcESaIcEEEESt10_Select1stIS8_ESt4lessImESaIS8_EE14_M_create_nodeIJS0_ImS7_EEEEPSt13_Rb_tree_nodeIS8_EDpOT_, @function
_ZNSt8_Rb_treeImSt4pairIKmNSt7__cxx1112basic_stringIcSt11char_traitsIcESaIcEEEESt10_Select1stIS8_ESt4lessImESaIS8_EE14_M_create_nodeIJS0_ImS7_EEEEPSt13_Rb_tree_nodeIS8_EDpOT_:
.LFB3557:
	.cfi_startproc
	endbr64
	pushq	%rbp
	.cfi_def_cfa_offset 16
	.cfi_offset 6, -16
	movq	%rsp, %rbp
	.cfi_def_cfa_register 6
	subq	$32, %rsp
	movq	%rdi, -24(%rbp)
	movq	%rsi, -32(%rbp)
	movq	-24(%rbp), %rax
	movq	%rax, %rdi
	call	_ZNSt8_Rb_treeImSt4pairIKmNSt7__cxx1112basic_stringIcSt11char_traitsIcESaIcEEEESt10_Select1stIS8_ESt4lessImESaIS8_EE11_M_get_nodeEv
	movq	%rax, -8(%rbp)
	movq	-32(%rbp), %rax
	movq	%rax, %rdi
	call	_ZSt7forwardISt4pairImNSt7__cxx1112basic_stringIcSt11char_traitsIcESaIcEEEEEOT_RNSt16remove_referenceIS8_E4typeE
	movq	%rax, %rdx
	movq	-8(%rbp), %rcx
	movq	-24(%rbp), %rax
	movq	%rcx, %rsi
	movq	%rax, %rdi
	call	_ZNSt8_Rb_treeImSt4pairIKmNSt7__cxx1112basic_stringIcSt11char_traitsIcESaIcEEEESt10_Select1stIS8_ESt4lessImESaIS8_EE17_M_construct_nodeIJS0_ImS7_EEEEvPSt13_Rb_tree_nodeIS8_EDpOT_
	movq	-8(%rbp), %rax
	leave
	.cfi_def_cfa 7, 8
	ret
	.cfi_endproc
.LFE3557:
	.size	_ZNSt8_Rb_treeImSt4pairIKmNSt7__cxx1112basic_stringIcSt11char_traitsIcESaIcEEEESt10_Select1stIS8_ESt4lessImESaIS8_EE14_M_create_nodeIJS0_ImS7_EEEEPSt13_Rb_tree_nodeIS8_EDpOT_, .-_ZNSt8_Rb_treeImSt4pairIKmNSt7__cxx1112basic_stringIcSt11char_traitsIcESaIcEEEESt10_Select1stIS8_ESt4lessImESaIS8_EE14_M_create_nodeIJS0_ImS7_EEEEPSt13_Rb_tree_nodeIS8_EDpOT_
	.section	.text._ZNSt8_Rb_treeImSt4pairIKmNSt7__cxx1112basic_stringIcSt11char_traitsIcESaIcEEEESt10_Select1stIS8_ESt4lessImESaIS8_EE24_M_get_insert_unique_posERS1_,"axG",@progbits,_ZNSt8_Rb_treeImSt4pairIKmNSt7__cxx1112basic_stringIcSt11char_traitsIcESaIcEEEESt10_Select1stIS8_ESt4lessImESaIS8_EE24_M_get_insert_unique_posERS1_,comdat
	.align 2
	.weak	_ZNSt8_Rb_treeImSt4pairIKmNSt7__cxx1112basic_stringIcSt11char_traitsIcESaIcEEEESt10_Select1stIS8_ESt4lessImESaIS8_EE24_M_get_insert_unique_posERS1_
	.type	_ZNSt8_Rb_treeImSt4pairIKmNSt7__cxx1112basic_stringIcSt11char_traitsIcESaIcEEEESt10_Select1stIS8_ESt4lessImESaIS8_EE24_M_get_insert_unique_posERS1_, @function
_ZNSt8_Rb_treeImSt4pairIKmNSt7__cxx1112basic_stringIcSt11char_traitsIcESaIcEEEESt10_Select1stIS8_ESt4lessImESaIS8_EE24_M_get_insert_unique_posERS1_:
.LFB3558:
	.cfi_startproc
	endbr64
	pushq	%rbp
	.cfi_def_cfa_offset 16
	.cfi_offset 6, -16
	movq	%rsp, %rbp
	.cfi_def_cfa_register 6
	pushq	%rbx
	subq	$104, %rsp
	.cfi_offset 3, -24
	movq	%rdi, -104(%rbp)
	movq	%rsi, -112(%rbp)
	movq	%fs:40, %rax
	movq	%rax, -24(%rbp)
	xorl	%eax, %eax
	movq	-104(%rbp), %rax
	movq	%rax, %rdi
	call	_ZNSt8_Rb_treeImSt4pairIKmNSt7__cxx1112basic_stringIcSt11char_traitsIcESaIcEEEESt10_Select1stIS8_ESt4lessImESaIS8_EE8_M_beginEv
	movq	%rax, -80(%rbp)
	movq	-104(%rbp), %rax
	movq	%rax, %rdi
	call	_ZNSt8_Rb_treeImSt4pairIKmNSt7__cxx1112basic_stringIcSt11char_traitsIcESaIcEEEESt10_Select1stIS8_ESt4lessImESaIS8_EE6_M_endEv
	movq	%rax, -72(%rbp)
	movb	$1, -81(%rbp)
	jmp	.L143
.L146:
	movq	-80(%rbp), %rax
	movq	%rax, -72(%rbp)
	movq	-104(%rbp), %rbx
	movq	-80(%rbp), %rax
	movq	%rax, %rdi
	call	_ZNSt8_Rb_treeImSt4pairIKmNSt7__cxx1112basic_stringIcSt11char_traitsIcESaIcEEEESt10_Select1stIS8_ESt4lessImESaIS8_EE6_S_keyEPKSt13_Rb_tree_nodeIS8_E
	movq	%rax, %rdx
	movq	-112(%rbp), %rax
	movq	%rax, %rsi
	movq	%rbx, %rdi
	call	_ZNKSt4lessImEclERKmS2_
	movb	%al, -81(%rbp)
	cmpb	$0, -81(%rbp)
	je	.L144
	movq	-80(%rbp), %rax
	movq	%rax, %rdi
	call	_ZNSt8_Rb_treeImSt4pairIKmNSt7__cxx1112basic_stringIcSt11char_traitsIcESaIcEEEESt10_Select1stIS8_ESt4lessImESaIS8_EE7_S_leftEPSt18_Rb_tree_node_base
	jmp	.L145
.L144:
	movq	-80(%rbp), %rax
	movq	%rax, %rdi
	call	_ZNSt8_Rb_treeImSt4pairIKmNSt7__cxx1112basic_stringIcSt11char_traitsIcESaIcEEEESt10_Select1stIS8_ESt4lessImESaIS8_EE8_S_rightEPSt18_Rb_tree_node_base
.L145:
	movq	%rax, -80(%rbp)
.L143:
	movq	-80(%rbp), %rax
	testq	%rax, %rax
	jne	.L146
	movq	-72(%rbp), %rdx
	leaq	-64(%rbp), %rax
	movq	%rdx, %rsi
	movq	%rax, %rdi
	call	_ZNSt17_Rb_tree_iteratorISt4pairIKmNSt7__cxx1112basic_stringIcSt11char_traitsIcESaIcEEEEEC1EPSt18_Rb_tree_node_base
	cmpb	$0, -81(%rbp)
	je	.L147
	movq	-104(%rbp), %rax
	movq	%rax, %rdi
	call	_ZNSt8_Rb_treeImSt4pairIKmNSt7__cxx1112basic_stringIcSt11char_traitsIcESaIcEEEESt10_Select1stIS8_ESt4lessImESaIS8_EE5beginEv
	movq	%rax, -48(%rbp)
	leaq	-48(%rbp), %rdx
	leaq	-64(%rbp), %rax
	movq	%rdx, %rsi
	movq	%rax, %rdi
	call	_ZSteqRKSt17_Rb_tree_iteratorISt4pairIKmNSt7__cxx1112basic_stringIcSt11char_traitsIcESaIcEEEEESB_
	testb	%al, %al
	je	.L148
	leaq	-72(%rbp), %rdx
	leaq	-80(%rbp), %rcx
	leaq	-48(%rbp), %rax
	movq	%rcx, %rsi
	movq	%rax, %rdi
	call	_ZNSt4pairIPSt18_Rb_tree_node_baseS1_EC1IRPSt13_Rb_tree_nodeIS_IKmNSt7__cxx1112basic_stringIcSt11char_traitsIcESaIcEEEEERS1_Lb1EEEOT_OT0_
	movq	-48(%rbp), %rax
	movq	-40(%rbp), %rdx
	jmp	.L151
.L148:
	leaq	-64(%rbp), %rax
	movq	%rax, %rdi
	call	_ZNSt17_Rb_tree_iteratorISt4pairIKmNSt7__cxx1112basic_stringIcSt11char_traitsIcESaIcEEEEEmmEv
.L147:
	movq	-104(%rbp), %rbx
	movq	-64(%rbp), %rax
	movq	%rax, %rdi
	call	_ZNSt8_Rb_treeImSt4pairIKmNSt7__cxx1112basic_stringIcSt11char_traitsIcESaIcEEEESt10_Select1stIS8_ESt4lessImESaIS8_EE6_S_keyEPKSt18_Rb_tree_node_base
	movq	%rax, %rcx
	movq	-112(%rbp), %rax
	movq	%rax, %rdx
	movq	%rcx, %rsi
	movq	%rbx, %rdi
	call	_ZNKSt4lessImEclERKmS2_
	testb	%al, %al
	je	.L150
	leaq	-72(%rbp), %rdx
	leaq	-80(%rbp), %rcx
	leaq	-48(%rbp), %rax
	movq	%rcx, %rsi
	movq	%rax, %rdi
	call	_ZNSt4pairIPSt18_Rb_tree_node_baseS1_EC1IRPSt13_Rb_tree_nodeIS_IKmNSt7__cxx1112basic_stringIcSt11char_traitsIcESaIcEEEEERS1_Lb1EEEOT_OT0_
	movq	-48(%rbp), %rax
	movq	-40(%rbp), %rdx
	jmp	.L151
.L150:
	movq	$0, -56(%rbp)
	leaq	-56(%rbp), %rdx
	leaq	-64(%rbp), %rcx
	leaq	-48(%rbp), %rax
	movq	%rcx, %rsi
	movq	%rax, %rdi
	call	_ZNSt4pairIPSt18_Rb_tree_node_baseS1_EC1IRS1_Lb1EEEOT_RKS1_
	movq	-48(%rbp), %rax
	movq	-40(%rbp), %rdx
.L151:
	movq	-24(%rbp), %rcx
	subq	%fs:40, %rcx
	je	.L152
	call	__stack_chk_fail@PLT
.L152:
	movq	-8(%rbp), %rbx
	leave
	.cfi_def_cfa 7, 8
	ret
	.cfi_endproc
.LFE3558:
	.size	_ZNSt8_Rb_treeImSt4pairIKmNSt7__cxx1112basic_stringIcSt11char_traitsIcESaIcEEEESt10_Select1stIS8_ESt4lessImESaIS8_EE24_M_get_insert_unique_posERS1_, .-_ZNSt8_Rb_treeImSt4pairIKmNSt7__cxx1112basic_stringIcSt11char_traitsIcESaIcEEEESt10_Select1stIS8_ESt4lessImESaIS8_EE24_M_get_insert_unique_posERS1_
	.section	.text._ZNSt8_Rb_treeImSt4pairIKmNSt7__cxx1112basic_stringIcSt11char_traitsIcESaIcEEEESt10_Select1stIS8_ESt4lessImESaIS8_EE6_S_keyEPKSt13_Rb_tree_nodeIS8_E,"axG",@progbits,_ZNSt8_Rb_treeImSt4pairIKmNSt7__cxx1112basic_stringIcSt11char_traitsIcESaIcEEEESt10_Select1stIS8_ESt4lessImESaIS8_EE6_S_keyEPKSt13_Rb_tree_nodeIS8_E,comdat
	.weak	_ZNSt8_Rb_treeImSt4pairIKmNSt7__cxx1112basic_stringIcSt11char_traitsIcESaIcEEEESt10_Select1stIS8_ESt4lessImESaIS8_EE6_S_keyEPKSt13_Rb_tree_nodeIS8_E
	.type	_ZNSt8_Rb_treeImSt4pairIKmNSt7__cxx1112basic_stringIcSt11char_traitsIcESaIcEEEESt10_Select1stIS8_ESt4lessImESaIS8_EE6_S_keyEPKSt13_Rb_tree_nodeIS8_E, @function
_ZNSt8_Rb_treeImSt4pairIKmNSt7__cxx1112basic_stringIcSt11char_traitsIcESaIcEEEESt10_Select1stIS8_ESt4lessImESaIS8_EE6_S_keyEPKSt13_Rb_tree_nodeIS8_E:
.LFB3573:
	.cfi_startproc
	endbr64
	pushq	%rbp
	.cfi_def_cfa_offset 16
	.cfi_offset 6, -16
	movq	%rsp, %rbp
	.cfi_def_cfa_register 6
	subq	$32, %rsp
	movq	%rdi, -24(%rbp)
	movq	%fs:40, %rax
	movq	%rax, -8(%rbp)
	xorl	%eax, %eax
	movq	-24(%rbp), %rax
	movq	%rax, %rdi
	call	_ZNKSt13_Rb_tree_nodeISt4pairIKmNSt7__cxx1112basic_stringIcSt11char_traitsIcESaIcEEEEE9_M_valptrEv
	movq	%rax, %rdx
	leaq	-9(%rbp), %rax
	movq	%rdx, %rsi
	movq	%rax, %rdi
	call	_ZNKSt10_Select1stISt4pairIKmNSt7__cxx1112basic_stringIcSt11char_traitsIcESaIcEEEEEclERKS8_
	movq	-8(%rbp), %rdx
	subq	%fs:40, %rdx
	je	.L155
	call	__stack_chk_fail@PLT
.L155:
	leave
	.cfi_def_cfa 7, 8
	ret
	.cfi_endproc
.LFE3573:
	.size	_ZNSt8_Rb_treeImSt4pairIKmNSt7__cxx1112basic_stringIcSt11char_traitsIcESaIcEEEESt10_Select1stIS8_ESt4lessImESaIS8_EE6_S_keyEPKSt13_Rb_tree_nodeIS8_E, .-_ZNSt8_Rb_treeImSt4pairIKmNSt7__cxx1112basic_stringIcSt11char_traitsIcESaIcEEEESt10_Select1stIS8_ESt4lessImESaIS8_EE6_S_keyEPKSt13_Rb_tree_nodeIS8_E
	.section	.text._ZNSt8_Rb_treeImSt4pairIKmNSt7__cxx1112basic_stringIcSt11char_traitsIcESaIcEEEESt10_Select1stIS8_ESt4lessImESaIS8_EE14_M_insert_nodeEPSt18_Rb_tree_node_baseSG_PSt13_Rb_tree_nodeIS8_E,"axG",@progbits,_ZNSt8_Rb_treeImSt4pairIKmNSt7__cxx1112basic_stringIcSt11char_traitsIcESaIcEEEESt10_Select1stIS8_ESt4lessImESaIS8_EE14_M_insert_nodeEPSt18_Rb_tree_node_baseSG_PSt13_Rb_tree_nodeIS8_E,comdat
	.align 2
	.weak	_ZNSt8_Rb_treeImSt4pairIKmNSt7__cxx1112basic_stringIcSt11char_traitsIcESaIcEEEESt10_Select1stIS8_ESt4lessImESaIS8_EE14_M_insert_nodeEPSt18_Rb_tree_node_baseSG_PSt13_Rb_tree_nodeIS8_E
	.type	_ZNSt8_Rb_treeImSt4pairIKmNSt7__cxx1112basic_stringIcSt11char_traitsIcESaIcEEEESt10_Select1stIS8_ESt4lessImESaIS8_EE14_M_insert_nodeEPSt18_Rb_tree_node_baseSG_PSt13_Rb_tree_nodeIS8_E, @function
_ZNSt8_Rb_treeImSt4pairIKmNSt7__cxx1112basic_stringIcSt11char_traitsIcESaIcEEEESt10_Select1stIS8_ESt4lessImESaIS8_EE14_M_insert_nodeEPSt18_Rb_tree_node_baseSG_PSt13_Rb_tree_nodeIS8_E:
.LFB3576:
	.cfi_startproc
	endbr64
	pushq	%rbp
	.cfi_def_cfa_offset 16
	.cfi_offset 6, -16
	movq	%rsp, %rbp
	.cfi_def_cfa_register 6
	pushq	%r12
	pushq	%rbx
	subq	$64, %rsp
	.cfi_offset 12, -24
	.cfi_offset 3, -32
	movq	%rdi, -56(%rbp)
	movq	%rsi, -64(%rbp)
	movq	%rdx, -72(%rbp)
	movq	%rcx, -80(%rbp)
	movq	%fs:40, %rax
	movq	%rax, -24(%rbp)
	xorl	%eax, %eax
	cmpq	$0, -64(%rbp)
	jne	.L157
	movq	-56(%rbp), %rax
	movq	%rax, %rdi
	call	_ZNSt8_Rb_treeImSt4pairIKmNSt7__cxx1112basic_stringIcSt11char_traitsIcESaIcEEEESt10_Select1stIS8_ESt4lessImESaIS8_EE6_M_endEv
	cmpq	%rax, -72(%rbp)
	je	.L157
	movq	-56(%rbp), %rbx
	movq	-72(%rbp), %rax
	movq	%rax, %rdi
	call	_ZNSt8_Rb_treeImSt4pairIKmNSt7__cxx1112basic_stringIcSt11char_traitsIcESaIcEEEESt10_Select1stIS8_ESt4lessImESaIS8_EE6_S_keyEPKSt18_Rb_tree_node_base
	movq	%rax, %r12
	movq	-80(%rbp), %rax
	movq	%rax, %rdi
	call	_ZNSt8_Rb_treeImSt4pairIKmNSt7__cxx1112basic_stringIcSt11char_traitsIcESaIcEEEESt10_Select1stIS8_ESt4lessImESaIS8_EE6_S_keyEPKSt13_Rb_tree_nodeIS8_E
	movq	%r12, %rdx
	movq	%rax, %rsi
	movq	%rbx, %rdi
	call	_ZNKSt4lessImEclERKmS2_
	testb	%al, %al
	je	.L158
.L157:
	movl	$1, %eax
	jmp	.L159
.L158:
	movl	$0, %eax
.L159:
	movb	%al, -33(%rbp)
	movq	-56(%rbp), %rax
	leaq	8(%rax), %rcx
	movzbl	-33(%rbp), %eax
	movq	-72(%rbp), %rdx
	movq	-80(%rbp), %rsi
	movl	%eax, %edi
	call	_ZSt29_Rb_tree_insert_and_rebalancebPSt18_Rb_tree_node_baseS0_RS_@PLT
	movq	-56(%rbp), %rax
	movq	40(%rax), %rax
	leaq	1(%rax), %rdx
	movq	-56(%rbp), %rax
	movq	%rdx, 40(%rax)
	movq	-80(%rbp), %rdx
	leaq	-32(%rbp), %rax
	movq	%rdx, %rsi
	movq	%rax, %rdi
	call	_ZNSt17_Rb_tree_iteratorISt4pairIKmNSt7__cxx1112basic_stringIcSt11char_traitsIcESaIcEEEEEC1EPSt18_Rb_tree_node_base
	movq	-32(%rbp), %rax
	movq	-24(%rbp), %rdx
	subq	%fs:40, %rdx
	je	.L161
	call	__stack_chk_fail@PLT
.L161:
	addq	$64, %rsp
	popq	%rbx
	popq	%r12
	popq	%rbp
	.cfi_def_cfa 7, 8
	ret
	.cfi_endproc
.LFE3576:
	.size	_ZNSt8_Rb_treeImSt4pairIKmNSt7__cxx1112basic_stringIcSt11char_traitsIcESaIcEEEESt10_Select1stIS8_ESt4lessImESaIS8_EE14_M_insert_nodeEPSt18_Rb_tree_node_baseSG_PSt13_Rb_tree_nodeIS8_E, .-_ZNSt8_Rb_treeImSt4pairIKmNSt7__cxx1112basic_stringIcSt11char_traitsIcESaIcEEEESt10_Select1stIS8_ESt4lessImESaIS8_EE14_M_insert_nodeEPSt18_Rb_tree_node_baseSG_PSt13_Rb_tree_nodeIS8_E
	.section	.text._ZNSt4pairISt17_Rb_tree_iteratorIS_IKmNSt7__cxx1112basic_stringIcSt11char_traitsIcESaIcEEEEEbEC2IS9_bLb1EEEOT_OT0_,"axG",@progbits,_ZNSt4pairISt17_Rb_tree_iteratorIS_IKmNSt7__cxx1112basic_stringIcSt11char_traitsIcESaIcEEEEEbEC5IS9_bLb1EEEOT_OT0_,comdat
	.align 2
	.weak	_ZNSt4pairISt17_Rb_tree_iteratorIS_IKmNSt7__cxx1112basic_stringIcSt11char_traitsIcESaIcEEEEEbEC2IS9_bLb1EEEOT_OT0_
	.type	_ZNSt4pairISt17_Rb_tree_iteratorIS_IKmNSt7__cxx1112basic_stringIcSt11char_traitsIcESaIcEEEEEbEC2IS9_bLb1EEEOT_OT0_, @function
_ZNSt4pairISt17_Rb_tree_iteratorIS_IKmNSt7__cxx1112basic_stringIcSt11char_traitsIcESaIcEEEEEbEC2IS9_bLb1EEEOT_OT0_:
.LFB3578:
	.cfi_startproc
	endbr64
	pushq	%rbp
	.cfi_def_cfa_offset 16
	.cfi_offset 6, -16
	movq	%rsp, %rbp
	.cfi_def_cfa_register 6
	subq	$32, %rsp
	movq	%rdi, -8(%rbp)
	movq	%rsi, -16(%rbp)
	movq	%rdx, -24(%rbp)
	movq	-16(%rbp), %rax
	movq	%rax, %rdi
	call	_ZSt7forwardISt17_Rb_tree_iteratorISt4pairIKmNSt7__cxx1112basic_stringIcSt11char_traitsIcESaIcEEEEEEOT_RNSt16remove_referenceISB_E4typeE
	movq	-8(%rbp), %rdx
	movq	(%rax), %rax
	movq	%rax, (%rdx)
	movq	-24(%rbp), %rax
	movq	%rax, %rdi
	call	_ZSt7forwardIbEOT_RNSt16remove_referenceIS0_E4typeE
	movzbl	(%rax), %edx
	movq	-8(%rbp), %rax
	movb	%dl, 8(%rax)
	nop
	leave
	.cfi_def_cfa 7, 8
	ret
	.cfi_endproc
.LFE3578:
	.size	_ZNSt4pairISt17_Rb_tree_iteratorIS_IKmNSt7__cxx1112basic_stringIcSt11char_traitsIcESaIcEEEEEbEC2IS9_bLb1EEEOT_OT0_, .-_ZNSt4pairISt17_Rb_tree_iteratorIS_IKmNSt7__cxx1112basic_stringIcSt11char_traitsIcESaIcEEEEEbEC2IS9_bLb1EEEOT_OT0_
	.weak	_ZNSt4pairISt17_Rb_tree_iteratorIS_IKmNSt7__cxx1112basic_stringIcSt11char_traitsIcESaIcEEEEEbEC1IS9_bLb1EEEOT_OT0_
	.set	_ZNSt4pairISt17_Rb_tree_iteratorIS_IKmNSt7__cxx1112basic_stringIcSt11char_traitsIcESaIcEEEEEbEC1IS9_bLb1EEEOT_OT0_,_ZNSt4pairISt17_Rb_tree_iteratorIS_IKmNSt7__cxx1112basic_stringIcSt11char_traitsIcESaIcEEEEEbEC2IS9_bLb1EEEOT_OT0_
	.section	.text._ZNKSt10_Select1stISt4pairIKmNSt7__cxx1112basic_stringIcSt11char_traitsIcESaIcEEEEEclERS8_,"axG",@progbits,_ZNKSt10_Select1stISt4pairIKmNSt7__cxx1112basic_stringIcSt11char_traitsIcESaIcEEEEEclERS8_,comdat
	.align 2
	.weak	_ZNKSt10_Select1stISt4pairIKmNSt7__cxx1112basic_stringIcSt11char_traitsIcESaIcEEEEEclERS8_
	.type	_ZNKSt10_Select1stISt4pairIKmNSt7__cxx1112basic_stringIcSt11char_traitsIcESaIcEEEEEclERS8_, @function
_ZNKSt10_Select1stISt4pairIKmNSt7__cxx1112basic_stringIcSt11char_traitsIcESaIcEEEEEclERS8_:
.LFB3580:
	.cfi_startproc
	endbr64
	pushq	%rbp
	.cfi_def_cfa_offset 16
	.cfi_offset 6, -16
	movq	%rsp, %rbp
	.cfi_def_cfa_register 6
	movq	%rdi, -8(%rbp)
	movq	%rsi, -16(%rbp)
	movq	-16(%rbp), %rax
	popq	%rbp
	.cfi_def_cfa 7, 8
	ret
	.cfi_endproc
.LFE3580:
	.size	_ZNKSt10_Select1stISt4pairIKmNSt7__cxx1112basic_stringIcSt11char_traitsIcESaIcEEEEEclERS8_, .-_ZNKSt10_Select1stISt4pairIKmNSt7__cxx1112basic_stringIcSt11char_traitsIcESaIcEEEEEclERS8_
	.section	.text._ZNSt8_Rb_treeImSt4pairIKmNSt7__cxx1112basic_stringIcSt11char_traitsIcESaIcEEEESt10_Select1stIS8_ESt4lessImESaIS8_EE11_Alloc_nodeC2ERSE_,"axG",@progbits,_ZNSt8_Rb_treeImSt4pairIKmNSt7__cxx1112basic_stringIcSt11char_traitsIcESaIcEEEESt10_Select1stIS8_ESt4lessImESaIS8_EE11_Alloc_nodeC5ERSE_,comdat
	.align 2
	.weak	_ZNSt8_Rb_treeImSt4pairIKmNSt7__cxx1112basic_stringIcSt11char_traitsIcESaIcEEEESt10_Select1stIS8_ESt4lessImESaIS8_EE11_Alloc_nodeC2ERSE_
	.type	_ZNSt8_Rb_treeImSt4pairIKmNSt7__cxx1112basic_stringIcSt11char_traitsIcESaIcEEEESt10_Select1stIS8_ESt4lessImESaIS8_EE11_Alloc_nodeC2ERSE_, @function
_ZNSt8_Rb_treeImSt4pairIKmNSt7__cxx1112basic_stringIcSt11char_traitsIcESaIcEEEESt10_Select1stIS8_ESt4lessImESaIS8_EE11_Alloc_nodeC2ERSE_:
.LFB3582:
	.cfi_startproc
	endbr64
	pushq	%rbp
	.cfi_def_cfa_offset 16
	.cfi_offset 6, -16
	movq	%rsp, %rbp
	.cfi_def_cfa_register 6
	movq	%rdi, -8(%rbp)
	movq	%rsi, -16(%rbp)
	movq	-8(%rbp), %rax
	movq	-16(%rbp), %rdx
	movq	%rdx, (%rax)
	nop
	popq	%rbp
	.cfi_def_cfa 7, 8
	ret
	.cfi_endproc
.LFE3582:
	.size	_ZNSt8_Rb_treeImSt4pairIKmNSt7__cxx1112basic_stringIcSt11char_traitsIcESaIcEEEESt10_Select1stIS8_ESt4lessImESaIS8_EE11_Alloc_nodeC2ERSE_, .-_ZNSt8_Rb_treeImSt4pairIKmNSt7__cxx1112basic_stringIcSt11char_traitsIcESaIcEEEESt10_Select1stIS8_ESt4lessImESaIS8_EE11_Alloc_nodeC2ERSE_
	.weak	_ZNSt8_Rb_treeImSt4pairIKmNSt7__cxx1112basic_stringIcSt11char_traitsIcESaIcEEEESt10_Select1stIS8_ESt4lessImESaIS8_EE11_Alloc_nodeC1ERSE_
	.set	_ZNSt8_Rb_treeImSt4pairIKmNSt7__cxx1112basic_stringIcSt11char_traitsIcESaIcEEEESt10_Select1stIS8_ESt4lessImESaIS8_EE11_Alloc_nodeC1ERSE_,_ZNSt8_Rb_treeImSt4pairIKmNSt7__cxx1112basic_stringIcSt11char_traitsIcESaIcEEEESt10_Select1stIS8_ESt4lessImESaIS8_EE11_Alloc_nodeC2ERSE_
	.section	.text._ZSt7forwardISt4pairIKmNSt7__cxx1112basic_stringIcSt11char_traitsIcESaIcEEEEEOT_RNSt16remove_referenceIS9_E4typeE,"axG",@progbits,_ZSt7forwardISt4pairIKmNSt7__cxx1112basic_stringIcSt11char_traitsIcESaIcEEEEEOT_RNSt16remove_referenceIS9_E4typeE,comdat
	.weak	_ZSt7forwardISt4pairIKmNSt7__cxx1112basic_stringIcSt11char_traitsIcESaIcEEEEEOT_RNSt16remove_referenceIS9_E4typeE
	.type	_ZSt7forwardISt4pairIKmNSt7__cxx1112basic_stringIcSt11char_traitsIcESaIcEEEEEOT_RNSt16remove_referenceIS9_E4typeE, @function
_ZSt7forwardISt4pairIKmNSt7__cxx1112basic_stringIcSt11char_traitsIcESaIcEEEEEOT_RNSt16remove_referenceIS9_E4typeE:
.LFB3584:
	.cfi_startproc
	endbr64
	pushq	%rbp
	.cfi_def_cfa_offset 16
	.cfi_offset 6, -16
	movq	%rsp, %rbp
	.cfi_def_cfa_register 6
	movq	%rdi, -8(%rbp)
	movq	-8(%rbp), %rax
	popq	%rbp
	.cfi_def_cfa 7, 8
	ret
	.cfi_endproc
.LFE3584:
	.size	_ZSt7forwardISt4pairIKmNSt7__cxx1112basic_stringIcSt11char_traitsIcESaIcEEEEEOT_RNSt16remove_referenceIS9_E4typeE, .-_ZSt7forwardISt4pairIKmNSt7__cxx1112basic_stringIcSt11char_traitsIcESaIcEEEEEOT_RNSt16remove_referenceIS9_E4typeE
	.section	.text._ZNSt8_Rb_treeImSt4pairIKmNSt7__cxx1112basic_stringIcSt11char_traitsIcESaIcEEEESt10_Select1stIS8_ESt4lessImESaIS8_EE10_M_insert_IS8_NSE_11_Alloc_nodeEEESt17_Rb_tree_iteratorIS8_EPSt18_Rb_tree_node_baseSK_OT_RT0_,"axG",@progbits,_ZNSt8_Rb_treeImSt4pairIKmNSt7__cxx1112basic_stringIcSt11char_traitsIcESaIcEEEESt10_Select1stIS8_ESt4lessImESaIS8_EE10_M_insert_IS8_NSE_11_Alloc_nodeEEESt17_Rb_tree_iteratorIS8_EPSt18_Rb_tree_node_baseSK_OT_RT0_,comdat
	.align 2
	.weak	_ZNSt8_Rb_treeImSt4pairIKmNSt7__cxx1112basic_stringIcSt11char_traitsIcESaIcEEEESt10_Select1stIS8_ESt4lessImESaIS8_EE10_M_insert_IS8_NSE_11_Alloc_nodeEEESt17_Rb_tree_iteratorIS8_EPSt18_Rb_tree_node_baseSK_OT_RT0_
	.type	_ZNSt8_Rb_treeImSt4pairIKmNSt7__cxx1112basic_stringIcSt11char_traitsIcESaIcEEEESt10_Select1stIS8_ESt4lessImESaIS8_EE10_M_insert_IS8_NSE_11_Alloc_nodeEEESt17_Rb_tree_iteratorIS8_EPSt18_Rb_tree_node_baseSK_OT_RT0_, @function
_ZNSt8_Rb_treeImSt4pairIKmNSt7__cxx1112basic_stringIcSt11char_traitsIcESaIcEEEESt10_Select1stIS8_ESt4lessImESaIS8_EE10_M_insert_IS8_NSE_11_Alloc_nodeEEESt17_Rb_tree_iteratorIS8_EPSt18_Rb_tree_node_baseSK_OT_RT0_:
.LFB3585:
	.cfi_startproc
	endbr64
	pushq	%rbp
	.cfi_def_cfa_offset 16
	.cfi_offset 6, -16
	movq	%rsp, %rbp
	.cfi_def_cfa_register 6
	pushq	%r12
	pushq	%rbx
	subq	$80, %rsp
	.cfi_offset 12, -24
	.cfi_offset 3, -32
	movq	%rdi, -56(%rbp)
	movq	%rsi, -64(%rbp)
	movq	%rdx, -72(%rbp)
	movq	%rcx, -80(%rbp)
	movq	%r8, -88(%rbp)
	movq	%fs:40, %rax
	movq	%rax, -24(%rbp)
	xorl	%eax, %eax
	cmpq	$0, -64(%rbp)
	jne	.L169
	movq	-56(%rbp), %rax
	movq	%rax, %rdi
	call	_ZNSt8_Rb_treeImSt4pairIKmNSt7__cxx1112basic_stringIcSt11char_traitsIcESaIcEEEESt10_Select1stIS8_ESt4lessImESaIS8_EE6_M_endEv
	cmpq	%rax, -72(%rbp)
	je	.L169
	movq	-56(%rbp), %rbx
	movq	-72(%rbp), %rax
	movq	%rax, %rdi
	call	_ZNSt8_Rb_treeImSt4pairIKmNSt7__cxx1112basic_stringIcSt11char_traitsIcESaIcEEEESt10_Select1stIS8_ESt4lessImESaIS8_EE6_S_keyEPKSt18_Rb_tree_node_base
	movq	%rax, %r12
	movq	-80(%rbp), %rdx
	leaq	-40(%rbp), %rax
	movq	%rdx, %rsi
	movq	%rax, %rdi
	call	_ZNKSt10_Select1stISt4pairIKmNSt7__cxx1112basic_stringIcSt11char_traitsIcESaIcEEEEEclERS8_
	movq	%r12, %rdx
	movq	%rax, %rsi
	movq	%rbx, %rdi
	call	_ZNKSt4lessImEclERKmS2_
	testb	%al, %al
	je	.L170
.L169:
	movl	$1, %eax
	jmp	.L171
.L170:
	movl	$0, %eax
.L171:
	movb	%al, -41(%rbp)
	movq	-80(%rbp), %rax
	movq	%rax, %rdi
	call	_ZSt7forwardISt4pairIKmNSt7__cxx1112basic_stringIcSt11char_traitsIcESaIcEEEEEOT_RNSt16remove_referenceIS9_E4typeE
	movq	%rax, %rdx
	movq	-88(%rbp), %rax
	movq	%rdx, %rsi
	movq	%rax, %rdi
	call	_ZNKSt8_Rb_treeImSt4pairIKmNSt7__cxx1112basic_stringIcSt11char_traitsIcESaIcEEEESt10_Select1stIS8_ESt4lessImESaIS8_EE11_Alloc_nodeclIS8_EEPSt13_Rb_tree_nodeIS8_EOT_
	movq	%rax, -32(%rbp)
	movq	-56(%rbp), %rax
	leaq	8(%rax), %rcx
	movzbl	-41(%rbp), %eax
	movq	-72(%rbp), %rdx
	movq	-32(%rbp), %rsi
	movl	%eax, %edi
	call	_ZSt29_Rb_tree_insert_and_rebalancebPSt18_Rb_tree_node_baseS0_RS_@PLT
	movq	-56(%rbp), %rax
	movq	40(%rax), %rax
	leaq	1(%rax), %rdx
	movq	-56(%rbp), %rax
	movq	%rdx, 40(%rax)
	movq	-32(%rbp), %rdx
	leaq	-40(%rbp), %rax
	movq	%rdx, %rsi
	movq	%rax, %rdi
	call	_ZNSt17_Rb_tree_iteratorISt4pairIKmNSt7__cxx1112basic_stringIcSt11char_traitsIcESaIcEEEEEC1EPSt18_Rb_tree_node_base
	movq	-40(%rbp), %rax
	movq	-24(%rbp), %rdx
	subq	%fs:40, %rdx
	je	.L173
	call	__stack_chk_fail@PLT
.L173:
	addq	$80, %rsp
	popq	%rbx
	popq	%r12
	popq	%rbp
	.cfi_def_cfa 7, 8
	ret
	.cfi_endproc
.LFE3585:
	.size	_ZNSt8_Rb_treeImSt4pairIKmNSt7__cxx1112basic_stringIcSt11char_traitsIcESaIcEEEESt10_Select1stIS8_ESt4lessImESaIS8_EE10_M_insert_IS8_NSE_11_Alloc_nodeEEESt17_Rb_tree_iteratorIS8_EPSt18_Rb_tree_node_baseSK_OT_RT0_, .-_ZNSt8_Rb_treeImSt4pairIKmNSt7__cxx1112basic_stringIcSt11char_traitsIcESaIcEEEESt10_Select1stIS8_ESt4lessImESaIS8_EE10_M_insert_IS8_NSE_11_Alloc_nodeEEESt17_Rb_tree_iteratorIS8_EPSt18_Rb_tree_node_baseSK_OT_RT0_
	.section	.text._ZNSt8_Rb_treeImSt4pairIKmNSt7__cxx1112basic_stringIcSt11char_traitsIcESaIcEEEESt10_Select1stIS8_ESt4lessImESaIS8_EE15_M_destroy_nodeEPSt13_Rb_tree_nodeIS8_E,"axG",@progbits,_ZNSt8_Rb_treeImSt4pairIKmNSt7__cxx1112basic_stringIcSt11char_traitsIcESaIcEEEESt10_Select1stIS8_ESt4lessImESaIS8_EE15_M_destroy_nodeEPSt13_Rb_tree_nodeIS8_E,comdat
	.align 2
	.weak	_ZNSt8_Rb_treeImSt4pairIKmNSt7__cxx1112basic_stringIcSt11char_traitsIcESaIcEEEESt10_Select1stIS8_ESt4lessImESaIS8_EE15_M_destroy_nodeEPSt13_Rb_tree_nodeIS8_E
	.type	_ZNSt8_Rb_treeImSt4pairIKmNSt7__cxx1112basic_stringIcSt11char_traitsIcESaIcEEEESt10_Select1stIS8_ESt4lessImESaIS8_EE15_M_destroy_nodeEPSt13_Rb_tree_nodeIS8_E, @function
_ZNSt8_Rb_treeImSt4pairIKmNSt7__cxx1112basic_stringIcSt11char_traitsIcESaIcEEEESt10_Select1stIS8_ESt4lessImESaIS8_EE15_M_destroy_nodeEPSt13_Rb_tree_nodeIS8_E:
.LFB3637:
	.cfi_startproc
	endbr64
	pushq	%rbp
	.cfi_def_cfa_offset 16
	.cfi_offset 6, -16
	movq	%rsp, %rbp
	.cfi_def_cfa_register 6
	pushq	%rbx
	subq	$24, %rsp
	.cfi_offset 3, -24
	movq	%rdi, -24(%rbp)
	movq	%rsi, -32(%rbp)
	movq	-32(%rbp), %rax
	movq	%rax, %rdi
	call	_ZNSt13_Rb_tree_nodeISt4pairIKmNSt7__cxx1112basic_stringIcSt11char_traitsIcESaIcEEEEE9_M_valptrEv
	movq	%rax, %rbx
	movq	-24(%rbp), %rax
	movq	%rax, %rdi
	call	_ZNSt8_Rb_treeImSt4pairIKmNSt7__cxx1112basic_stringIcSt11char_traitsIcESaIcEEEESt10_Select1stIS8_ESt4lessImESaIS8_EE21_M_get_Node_allocatorEv
	movq	%rbx, %rsi
	movq	%rax, %rdi
	call	_ZNSt16allocator_traitsISaISt13_Rb_tree_nodeISt4pairIKmNSt7__cxx1112basic_stringIcSt11char_traitsIcESaIcEEEEEEE7destroyIS9_EEvRSB_PT_
	nop
	movq	-8(%rbp), %rbx
	leave
	.cfi_def_cfa 7, 8
	ret
	.cfi_endproc
.LFE3637:
	.size	_ZNSt8_Rb_treeImSt4pairIKmNSt7__cxx1112basic_stringIcSt11char_traitsIcESaIcEEEESt10_Select1stIS8_ESt4lessImESaIS8_EE15_M_destroy_nodeEPSt13_Rb_tree_nodeIS8_E, .-_ZNSt8_Rb_treeImSt4pairIKmNSt7__cxx1112basic_stringIcSt11char_traitsIcESaIcEEEESt10_Select1stIS8_ESt4lessImESaIS8_EE15_M_destroy_nodeEPSt13_Rb_tree_nodeIS8_E
	.section	.text._ZNSt8_Rb_treeImSt4pairIKmNSt7__cxx1112basic_stringIcSt11char_traitsIcESaIcEEEESt10_Select1stIS8_ESt4lessImESaIS8_EE11_M_put_nodeEPSt13_Rb_tree_nodeIS8_E,"axG",@progbits,_ZNSt8_Rb_treeImSt4pairIKmNSt7__cxx1112basic_stringIcSt11char_traitsIcESaIcEEEESt10_Select1stIS8_ESt4lessImESaIS8_EE11_M_put_nodeEPSt13_Rb_tree_nodeIS8_E,comdat
	.align 2
	.weak	_ZNSt8_Rb_treeImSt4pairIKmNSt7__cxx1112basic_stringIcSt11char_traitsIcESaIcEEEESt10_Select1stIS8_ESt4lessImESaIS8_EE11_M_put_nodeEPSt13_Rb_tree_nodeIS8_E
	.type	_ZNSt8_Rb_treeImSt4pairIKmNSt7__cxx1112basic_stringIcSt11char_traitsIcESaIcEEEESt10_Select1stIS8_ESt4lessImESaIS8_EE11_M_put_nodeEPSt13_Rb_tree_nodeIS8_E, @function
_ZNSt8_Rb_treeImSt4pairIKmNSt7__cxx1112basic_stringIcSt11char_traitsIcESaIcEEEESt10_Select1stIS8_ESt4lessImESaIS8_EE11_M_put_nodeEPSt13_Rb_tree_nodeIS8_E:
.LFB3638:
	.cfi_startproc
	.cfi_personality 0x9b,DW.ref.__gxx_personality_v0
	.cfi_lsda 0x1b,.LLSDA3638
	endbr64
	pushq	%rbp
	.cfi_def_cfa_offset 16
	.cfi_offset 6, -16
	movq	%rsp, %rbp
	.cfi_def_cfa_register 6
	subq	$16, %rsp
	movq	%rdi, -8(%rbp)
	movq	%rsi, -16(%rbp)
	movq	-8(%rbp), %rax
	movq	%rax, %rdi
	call	_ZNSt8_Rb_treeImSt4pairIKmNSt7__cxx1112basic_stringIcSt11char_traitsIcESaIcEEEESt10_Select1stIS8_ESt4lessImESaIS8_EE21_M_get_Node_allocatorEv
	movq	%rax, %rcx
	movq	-16(%rbp), %rax
	movl	$1, %edx
	movq	%rax, %rsi
	movq	%rcx, %rdi
	call	_ZNSt16allocator_traitsISaISt13_Rb_tree_nodeISt4pairIKmNSt7__cxx1112basic_stringIcSt11char_traitsIcESaIcEEEEEEE10deallocateERSB_PSA_m
	nop
	leave
	.cfi_def_cfa 7, 8
	ret
	.cfi_endproc
.LFE3638:
	.section	.gcc_except_table
.LLSDA3638:
	.byte	0xff
	.byte	0xff
	.byte	0x1
	.uleb128 .LLSDACSE3638-.LLSDACSB3638
.LLSDACSB3638:
.LLSDACSE3638:
	.section	.text._ZNSt8_Rb_treeImSt4pairIKmNSt7__cxx1112basic_stringIcSt11char_traitsIcESaIcEEEESt10_Select1stIS8_ESt4lessImESaIS8_EE11_M_put_nodeEPSt13_Rb_tree_nodeIS8_E,"axG",@progbits,_ZNSt8_Rb_treeImSt4pairIKmNSt7__cxx1112basic_stringIcSt11char_traitsIcESaIcEEEESt10_Select1stIS8_ESt4lessImESaIS8_EE11_M_put_nodeEPSt13_Rb_tree_nodeIS8_E,comdat
	.size	_ZNSt8_Rb_treeImSt4pairIKmNSt7__cxx1112basic_stringIcSt11char_traitsIcESaIcEEEESt10_Select1stIS8_ESt4lessImESaIS8_EE11_M_put_nodeEPSt13_Rb_tree_nodeIS8_E, .-_ZNSt8_Rb_treeImSt4pairIKmNSt7__cxx1112basic_stringIcSt11char_traitsIcESaIcEEEESt10_Select1stIS8_ESt4lessImESaIS8_EE11_M_put_nodeEPSt13_Rb_tree_nodeIS8_E
	.section	.text._ZN9__gnu_cxx16__aligned_membufISt4pairIKmNSt7__cxx1112basic_stringIcSt11char_traitsIcESaIcEEEEE7_M_addrEv,"axG",@progbits,_ZN9__gnu_cxx16__aligned_membufISt4pairIKmNSt7__cxx1112basic_stringIcSt11char_traitsIcESaIcEEEEE7_M_addrEv,comdat
	.align 2
	.weak	_ZN9__gnu_cxx16__aligned_membufISt4pairIKmNSt7__cxx1112basic_stringIcSt11char_traitsIcESaIcEEEEE7_M_addrEv
	.type	_ZN9__gnu_cxx16__aligned_membufISt4pairIKmNSt7__cxx1112basic_stringIcSt11char_traitsIcESaIcEEEEE7_M_addrEv, @function
_ZN9__gnu_cxx16__aligned_membufISt4pairIKmNSt7__cxx1112basic_stringIcSt11char_traitsIcESaIcEEEEE7_M_addrEv:
.LFB3642:
	.cfi_startproc
	endbr64
	pushq	%rbp
	.cfi_def_cfa_offset 16
	.cfi_offset 6, -16
	movq	%rsp, %rbp
	.cfi_def_cfa_register 6
	movq	%rdi, -8(%rbp)
	movq	-8(%rbp), %rax
	popq	%rbp
	.cfi_def_cfa 7, 8
	ret
	.cfi_endproc
.LFE3642:
	.size	_ZN9__gnu_cxx16__aligned_membufISt4pairIKmNSt7__cxx1112basic_stringIcSt11char_traitsIcESaIcEEEEE7_M_addrEv, .-_ZN9__gnu_cxx16__aligned_membufISt4pairIKmNSt7__cxx1112basic_stringIcSt11char_traitsIcESaIcEEEEE7_M_addrEv
	.section	.text._ZNSt8_Rb_treeImSt4pairIKmNSt7__cxx1112basic_stringIcSt11char_traitsIcESaIcEEEESt10_Select1stIS8_ESt4lessImESaIS8_EE11_M_get_nodeEv,"axG",@progbits,_ZNSt8_Rb_treeImSt4pairIKmNSt7__cxx1112basic_stringIcSt11char_traitsIcESaIcEEEESt10_Select1stIS8_ESt4lessImESaIS8_EE11_M_get_nodeEv,comdat
	.align 2
	.weak	_ZNSt8_Rb_treeImSt4pairIKmNSt7__cxx1112basic_stringIcSt11char_traitsIcESaIcEEEESt10_Select1stIS8_ESt4lessImESaIS8_EE11_M_get_nodeEv
	.type	_ZNSt8_Rb_treeImSt4pairIKmNSt7__cxx1112basic_stringIcSt11char_traitsIcESaIcEEEESt10_Select1stIS8_ESt4lessImESaIS8_EE11_M_get_nodeEv, @function
_ZNSt8_Rb_treeImSt4pairIKmNSt7__cxx1112basic_stringIcSt11char_traitsIcESaIcEEEESt10_Select1stIS8_ESt4lessImESaIS8_EE11_M_get_nodeEv:
.LFB3646:
	.cfi_startproc
	endbr64
	pushq	%rbp
	.cfi_def_cfa_offset 16
	.cfi_offset 6, -16
	movq	%rsp, %rbp
	.cfi_def_cfa_register 6
	subq	$16, %rsp
	movq	%rdi, -8(%rbp)
	movq	-8(%rbp), %rax
	movq	%rax, %rdi
	call	_ZNSt8_Rb_treeImSt4pairIKmNSt7__cxx1112basic_stringIcSt11char_traitsIcESaIcEEEESt10_Select1stIS8_ESt4lessImESaIS8_EE21_M_get_Node_allocatorEv
	movl	$1, %esi
	movq	%rax, %rdi
	call	_ZNSt16allocator_traitsISaISt13_Rb_tree_nodeISt4pairIKmNSt7__cxx1112basic_stringIcSt11char_traitsIcESaIcEEEEEEE8allocateERSB_m
	leave
	.cfi_def_cfa 7, 8
	ret
	.cfi_endproc
.LFE3646:
	.size	_ZNSt8_Rb_treeImSt4pairIKmNSt7__cxx1112basic_stringIcSt11char_traitsIcESaIcEEEESt10_Select1stIS8_ESt4lessImESaIS8_EE11_M_get_nodeEv, .-_ZNSt8_Rb_treeImSt4pairIKmNSt7__cxx1112basic_stringIcSt11char_traitsIcESaIcEEEESt10_Select1stIS8_ESt4lessImESaIS8_EE11_M_get_nodeEv
	.section	.text._ZNSt8_Rb_treeImSt4pairIKmNSt7__cxx1112basic_stringIcSt11char_traitsIcESaIcEEEESt10_Select1stIS8_ESt4lessImESaIS8_EE17_M_construct_nodeIJS0_ImS7_EEEEvPSt13_Rb_tree_nodeIS8_EDpOT_,"axG",@progbits,_ZNSt8_Rb_treeImSt4pairIKmNSt7__cxx1112basic_stringIcSt11char_traitsIcESaIcEEEESt10_Select1stIS8_ESt4lessImESaIS8_EE17_M_construct_nodeIJS0_ImS7_EEEEvPSt13_Rb_tree_nodeIS8_EDpOT_,comdat
	.align 2
	.weak	_ZNSt8_Rb_treeImSt4pairIKmNSt7__cxx1112basic_stringIcSt11char_traitsIcESaIcEEEESt10_Select1stIS8_ESt4lessImESaIS8_EE17_M_construct_nodeIJS0_ImS7_EEEEvPSt13_Rb_tree_nodeIS8_EDpOT_
	.type	_ZNSt8_Rb_treeImSt4pairIKmNSt7__cxx1112basic_stringIcSt11char_traitsIcESaIcEEEESt10_Select1stIS8_ESt4lessImESaIS8_EE17_M_construct_nodeIJS0_ImS7_EEEEvPSt13_Rb_tree_nodeIS8_EDpOT_, @function
_ZNSt8_Rb_treeImSt4pairIKmNSt7__cxx1112basic_stringIcSt11char_traitsIcESaIcEEEESt10_Select1stIS8_ESt4lessImESaIS8_EE17_M_construct_nodeIJS0_ImS7_EEEEvPSt13_Rb_tree_nodeIS8_EDpOT_:
.LFB3647:
	.cfi_startproc
	.cfi_personality 0x9b,DW.ref.__gxx_personality_v0
	.cfi_lsda 0x1b,.LLSDA3647
	endbr64
	pushq	%rbp
	.cfi_def_cfa_offset 16
	.cfi_offset 6, -16
	movq	%rsp, %rbp
	.cfi_def_cfa_register 6
	pushq	%r12
	pushq	%rbx
	subq	$32, %rsp
	.cfi_offset 12, -24
	.cfi_offset 3, -32
	movq	%rdi, -24(%rbp)
	movq	%rsi, -32(%rbp)
	movq	%rdx, -40(%rbp)
	movq	-32(%rbp), %rax
	movq	%rax, %rsi
	movl	$72, %edi
	call	_ZnwmPv
	movq	-40(%rbp), %rax
	movq	%rax, %rdi
	call	_ZSt7forwardISt4pairImNSt7__cxx1112basic_stringIcSt11char_traitsIcESaIcEEEEEOT_RNSt16remove_referenceIS8_E4typeE
	movq	%rax, %r12
	movq	-32(%rbp), %rax
	movq	%rax, %rdi
	call	_ZNSt13_Rb_tree_nodeISt4pairIKmNSt7__cxx1112basic_stringIcSt11char_traitsIcESaIcEEEEE9_M_valptrEv
	movq	%rax, %rbx
	movq	-24(%rbp), %rax
	movq	%rax, %rdi
	call	_ZNSt8_Rb_treeImSt4pairIKmNSt7__cxx1112basic_stringIcSt11char_traitsIcESaIcEEEESt10_Select1stIS8_ESt4lessImESaIS8_EE21_M_get_Node_allocatorEv
	movq	%r12, %rdx
	movq	%rbx, %rsi
	movq	%rax, %rdi
.LEHB21:
	call	_ZNSt16allocator_traitsISaISt13_Rb_tree_nodeISt4pairIKmNSt7__cxx1112basic_stringIcSt11char_traitsIcESaIcEEEEEEE9constructIS9_JS1_ImS8_EEEEvRSB_PT_DpOT0_
.LEHE21:
	jmp	.L185
.L183:
	endbr64
	movq	%rax, %rdi
	call	__cxa_begin_catch@PLT
	movq	-32(%rbp), %rdx
	movq	-24(%rbp), %rax
	movq	%rdx, %rsi
	movq	%rax, %rdi
	call	_ZNSt8_Rb_treeImSt4pairIKmNSt7__cxx1112basic_stringIcSt11char_traitsIcESaIcEEEESt10_Select1stIS8_ESt4lessImESaIS8_EE11_M_put_nodeEPSt13_Rb_tree_nodeIS8_E
.LEHB22:
	call	__cxa_rethrow@PLT
.LEHE22:
.L184:
	endbr64
	movq	%rax, %rbx
	call	__cxa_end_catch@PLT
	movq	%rbx, %rax
	movq	%rax, %rdi
.LEHB23:
	call	_Unwind_Resume@PLT
.LEHE23:
.L185:
	addq	$32, %rsp
	popq	%rbx
	popq	%r12
	popq	%rbp
	.cfi_def_cfa 7, 8
	ret
	.cfi_endproc
.LFE3647:
	.section	.gcc_except_table
	.align 4
.LLSDA3647:
	.byte	0xff
	.byte	0x9b
	.uleb128 .LLSDATT3647-.LLSDATTD3647
.LLSDATTD3647:
	.byte	0x1
	.uleb128 .LLSDACSE3647-.LLSDACSB3647
.LLSDACSB3647:
	.uleb128 .LEHB21-.LFB3647
	.uleb128 .LEHE21-.LEHB21
	.uleb128 .L183-.LFB3647
	.uleb128 0x1
	.uleb128 .LEHB22-.LFB3647
	.uleb128 .LEHE22-.LEHB22
	.uleb128 .L184-.LFB3647
	.uleb128 0
	.uleb128 .LEHB23-.LFB3647
	.uleb128 .LEHE23-.LEHB23
	.uleb128 0
	.uleb128 0
.LLSDACSE3647:
	.byte	0x1
	.byte	0
	.align 4
	.long	0

.LLSDATT3647:
	.section	.text._ZNSt8_Rb_treeImSt4pairIKmNSt7__cxx1112basic_stringIcSt11char_traitsIcESaIcEEEESt10_Select1stIS8_ESt4lessImESaIS8_EE17_M_construct_nodeIJS0_ImS7_EEEEvPSt13_Rb_tree_nodeIS8_EDpOT_,"axG",@progbits,_ZNSt8_Rb_treeImSt4pairIKmNSt7__cxx1112basic_stringIcSt11char_traitsIcESaIcEEEESt10_Select1stIS8_ESt4lessImESaIS8_EE17_M_construct_nodeIJS0_ImS7_EEEEvPSt13_Rb_tree_nodeIS8_EDpOT_,comdat
	.size	_ZNSt8_Rb_treeImSt4pairIKmNSt7__cxx1112basic_stringIcSt11char_traitsIcESaIcEEEESt10_Select1stIS8_ESt4lessImESaIS8_EE17_M_construct_nodeIJS0_ImS7_EEEEvPSt13_Rb_tree_nodeIS8_EDpOT_, .-_ZNSt8_Rb_treeImSt4pairIKmNSt7__cxx1112basic_stringIcSt11char_traitsIcESaIcEEEESt10_Select1stIS8_ESt4lessImESaIS8_EE17_M_construct_nodeIJS0_ImS7_EEEEvPSt13_Rb_tree_nodeIS8_EDpOT_
	.section	.text._ZNSt8_Rb_treeImSt4pairIKmNSt7__cxx1112basic_stringIcSt11char_traitsIcESaIcEEEESt10_Select1stIS8_ESt4lessImESaIS8_EE6_M_endEv,"axG",@progbits,_ZNSt8_Rb_treeImSt4pairIKmNSt7__cxx1112basic_stringIcSt11char_traitsIcESaIcEEEESt10_Select1stIS8_ESt4lessImESaIS8_EE6_M_endEv,comdat
	.align 2
	.weak	_ZNSt8_Rb_treeImSt4pairIKmNSt7__cxx1112basic_stringIcSt11char_traitsIcESaIcEEEESt10_Select1stIS8_ESt4lessImESaIS8_EE6_M_endEv
	.type	_ZNSt8_Rb_treeImSt4pairIKmNSt7__cxx1112basic_stringIcSt11char_traitsIcESaIcEEEESt10_Select1stIS8_ESt4lessImESaIS8_EE6_M_endEv, @function
_ZNSt8_Rb_treeImSt4pairIKmNSt7__cxx1112basic_stringIcSt11char_traitsIcESaIcEEEESt10_Select1stIS8_ESt4lessImESaIS8_EE6_M_endEv:
.LFB3648:
	.cfi_startproc
	endbr64
	pushq	%rbp
	.cfi_def_cfa_offset 16
	.cfi_offset 6, -16
	movq	%rsp, %rbp
	.cfi_def_cfa_register 6
	movq	%rdi, -8(%rbp)
	movq	-8(%rbp), %rax
	addq	$8, %rax
	popq	%rbp
	.cfi_def_cfa 7, 8
	ret
	.cfi_endproc
.LFE3648:
	.size	_ZNSt8_Rb_treeImSt4pairIKmNSt7__cxx1112basic_stringIcSt11char_traitsIcESaIcEEEESt10_Select1stIS8_ESt4lessImESaIS8_EE6_M_endEv, .-_ZNSt8_Rb_treeImSt4pairIKmNSt7__cxx1112basic_stringIcSt11char_traitsIcESaIcEEEESt10_Select1stIS8_ESt4lessImESaIS8_EE6_M_endEv
	.section	.text._ZNKSt4lessImEclERKmS2_,"axG",@progbits,_ZNKSt4lessImEclERKmS2_,comdat
	.align 2
	.weak	_ZNKSt4lessImEclERKmS2_
	.type	_ZNKSt4lessImEclERKmS2_, @function
_ZNKSt4lessImEclERKmS2_:
.LFB3649:
	.cfi_startproc
	endbr64
	pushq	%rbp
	.cfi_def_cfa_offset 16
	.cfi_offset 6, -16
	movq	%rsp, %rbp
	.cfi_def_cfa_register 6
	movq	%rdi, -8(%rbp)
	movq	%rsi, -16(%rbp)
	movq	%rdx, -24(%rbp)
	movq	-16(%rbp), %rax
	movq	(%rax), %rdx
	movq	-24(%rbp), %rax
	movq	(%rax), %rax
	cmpq	%rax, %rdx
	setb	%al
	popq	%rbp
	.cfi_def_cfa 7, 8
	ret
	.cfi_endproc
.LFE3649:
	.size	_ZNKSt4lessImEclERKmS2_, .-_ZNKSt4lessImEclERKmS2_
	.section	.text._ZSteqRKSt17_Rb_tree_iteratorISt4pairIKmNSt7__cxx1112basic_stringIcSt11char_traitsIcESaIcEEEEESB_,"axG",@progbits,_ZSteqRKSt17_Rb_tree_iteratorISt4pairIKmNSt7__cxx1112basic_stringIcSt11char_traitsIcESaIcEEEEESB_,comdat
	.weak	_ZSteqRKSt17_Rb_tree_iteratorISt4pairIKmNSt7__cxx1112basic_stringIcSt11char_traitsIcESaIcEEEEESB_
	.type	_ZSteqRKSt17_Rb_tree_iteratorISt4pairIKmNSt7__cxx1112basic_stringIcSt11char_traitsIcESaIcEEEEESB_, @function
_ZSteqRKSt17_Rb_tree_iteratorISt4pairIKmNSt7__cxx1112basic_stringIcSt11char_traitsIcESaIcEEEEESB_:
.LFB3650:
	.cfi_startproc
	endbr64
	pushq	%rbp
	.cfi_def_cfa_offset 16
	.cfi_offset 6, -16
	movq	%rsp, %rbp
	.cfi_def_cfa_register 6
	movq	%rdi, -8(%rbp)
	movq	%rsi, -16(%rbp)
	movq	-8(%rbp), %rax
	movq	(%rax), %rdx
	movq	-16(%rbp), %rax
	movq	(%rax), %rax
	cmpq	%rax, %rdx
	sete	%al
	popq	%rbp
	.cfi_def_cfa 7, 8
	ret
	.cfi_endproc
.LFE3650:
	.size	_ZSteqRKSt17_Rb_tree_iteratorISt4pairIKmNSt7__cxx1112basic_stringIcSt11char_traitsIcESaIcEEEEESB_, .-_ZSteqRKSt17_Rb_tree_iteratorISt4pairIKmNSt7__cxx1112basic_stringIcSt11char_traitsIcESaIcEEEEESB_
	.section	.text._ZNSt4pairIPSt18_Rb_tree_node_baseS1_EC2IRPSt13_Rb_tree_nodeIS_IKmNSt7__cxx1112basic_stringIcSt11char_traitsIcESaIcEEEEERS1_Lb1EEEOT_OT0_,"axG",@progbits,_ZNSt4pairIPSt18_Rb_tree_node_baseS1_EC5IRPSt13_Rb_tree_nodeIS_IKmNSt7__cxx1112basic_stringIcSt11char_traitsIcESaIcEEEEERS1_Lb1EEEOT_OT0_,comdat
	.align 2
	.weak	_ZNSt4pairIPSt18_Rb_tree_node_baseS1_EC2IRPSt13_Rb_tree_nodeIS_IKmNSt7__cxx1112basic_stringIcSt11char_traitsIcESaIcEEEEERS1_Lb1EEEOT_OT0_
	.type	_ZNSt4pairIPSt18_Rb_tree_node_baseS1_EC2IRPSt13_Rb_tree_nodeIS_IKmNSt7__cxx1112basic_stringIcSt11char_traitsIcESaIcEEEEERS1_Lb1EEEOT_OT0_, @function
_ZNSt4pairIPSt18_Rb_tree_node_baseS1_EC2IRPSt13_Rb_tree_nodeIS_IKmNSt7__cxx1112basic_stringIcSt11char_traitsIcESaIcEEEEERS1_Lb1EEEOT_OT0_:
.LFB3652:
	.cfi_startproc
	endbr64
	pushq	%rbp
	.cfi_def_cfa_offset 16
	.cfi_offset 6, -16
	movq	%rsp, %rbp
	.cfi_def_cfa_register 6
	subq	$32, %rsp
	movq	%rdi, -8(%rbp)
	movq	%rsi, -16(%rbp)
	movq	%rdx, -24(%rbp)
	movq	-16(%rbp), %rax
	movq	%rax, %rdi
	call	_ZSt7forwardIRPSt13_Rb_tree_nodeISt4pairIKmNSt7__cxx1112basic_stringIcSt11char_traitsIcESaIcEEEEEEOT_RNSt16remove_referenceISD_E4typeE
	movq	(%rax), %rdx
	movq	-8(%rbp), %rax
	movq	%rdx, (%rax)
	movq	-24(%rbp), %rax
	movq	%rax, %rdi
	call	_ZSt7forwardIRPSt18_Rb_tree_node_baseEOT_RNSt16remove_referenceIS3_E4typeE
	movq	(%rax), %rdx
	movq	-8(%rbp), %rax
	movq	%rdx, 8(%rax)
	nop
	leave
	.cfi_def_cfa 7, 8
	ret
	.cfi_endproc
.LFE3652:
	.size	_ZNSt4pairIPSt18_Rb_tree_node_baseS1_EC2IRPSt13_Rb_tree_nodeIS_IKmNSt7__cxx1112basic_stringIcSt11char_traitsIcESaIcEEEEERS1_Lb1EEEOT_OT0_, .-_ZNSt4pairIPSt18_Rb_tree_node_baseS1_EC2IRPSt13_Rb_tree_nodeIS_IKmNSt7__cxx1112basic_stringIcSt11char_traitsIcESaIcEEEEERS1_Lb1EEEOT_OT0_
	.weak	_ZNSt4pairIPSt18_Rb_tree_node_baseS1_EC1IRPSt13_Rb_tree_nodeIS_IKmNSt7__cxx1112basic_stringIcSt11char_traitsIcESaIcEEEEERS1_Lb1EEEOT_OT0_
	.set	_ZNSt4pairIPSt18_Rb_tree_node_baseS1_EC1IRPSt13_Rb_tree_nodeIS_IKmNSt7__cxx1112basic_stringIcSt11char_traitsIcESaIcEEEEERS1_Lb1EEEOT_OT0_,_ZNSt4pairIPSt18_Rb_tree_node_baseS1_EC2IRPSt13_Rb_tree_nodeIS_IKmNSt7__cxx1112basic_stringIcSt11char_traitsIcESaIcEEEEERS1_Lb1EEEOT_OT0_
	.section	.text._ZNSt17_Rb_tree_iteratorISt4pairIKmNSt7__cxx1112basic_stringIcSt11char_traitsIcESaIcEEEEEmmEv,"axG",@progbits,_ZNSt17_Rb_tree_iteratorISt4pairIKmNSt7__cxx1112basic_stringIcSt11char_traitsIcESaIcEEEEEmmEv,comdat
	.align 2
	.weak	_ZNSt17_Rb_tree_iteratorISt4pairIKmNSt7__cxx1112basic_stringIcSt11char_traitsIcESaIcEEEEEmmEv
	.type	_ZNSt17_Rb_tree_iteratorISt4pairIKmNSt7__cxx1112basic_stringIcSt11char_traitsIcESaIcEEEEEmmEv, @function
_ZNSt17_Rb_tree_iteratorISt4pairIKmNSt7__cxx1112basic_stringIcSt11char_traitsIcESaIcEEEEEmmEv:
.LFB3654:
	.cfi_startproc
	endbr64
	pushq	%rbp
	.cfi_def_cfa_offset 16
	.cfi_offset 6, -16
	movq	%rsp, %rbp
	.cfi_def_cfa_register 6
	subq	$16, %rsp
	movq	%rdi, -8(%rbp)
	movq	-8(%rbp), %rax
	movq	(%rax), %rax
	movq	%rax, %rdi
	call	_ZSt18_Rb_tree_decrementPSt18_Rb_tree_node_base@PLT
	movq	-8(%rbp), %rdx
	movq	%rax, (%rdx)
	movq	-8(%rbp), %rax
	leave
	.cfi_def_cfa 7, 8
	ret
	.cfi_endproc
.LFE3654:
	.size	_ZNSt17_Rb_tree_iteratorISt4pairIKmNSt7__cxx1112basic_stringIcSt11char_traitsIcESaIcEEEEEmmEv, .-_ZNSt17_Rb_tree_iteratorISt4pairIKmNSt7__cxx1112basic_stringIcSt11char_traitsIcESaIcEEEEEmmEv
	.section	.text._ZNSt8_Rb_treeImSt4pairIKmNSt7__cxx1112basic_stringIcSt11char_traitsIcESaIcEEEESt10_Select1stIS8_ESt4lessImESaIS8_EE6_S_keyEPKSt18_Rb_tree_node_base,"axG",@progbits,_ZNSt8_Rb_treeImSt4pairIKmNSt7__cxx1112basic_stringIcSt11char_traitsIcESaIcEEEESt10_Select1stIS8_ESt4lessImESaIS8_EE6_S_keyEPKSt18_Rb_tree_node_base,comdat
	.weak	_ZNSt8_Rb_treeImSt4pairIKmNSt7__cxx1112basic_stringIcSt11char_traitsIcESaIcEEEESt10_Select1stIS8_ESt4lessImESaIS8_EE6_S_keyEPKSt18_Rb_tree_node_base
	.type	_ZNSt8_Rb_treeImSt4pairIKmNSt7__cxx1112basic_stringIcSt11char_traitsIcESaIcEEEESt10_Select1stIS8_ESt4lessImESaIS8_EE6_S_keyEPKSt18_Rb_tree_node_base, @function
_ZNSt8_Rb_treeImSt4pairIKmNSt7__cxx1112basic_stringIcSt11char_traitsIcESaIcEEEESt10_Select1stIS8_ESt4lessImESaIS8_EE6_S_keyEPKSt18_Rb_tree_node_base:
.LFB3655:
	.cfi_startproc
	endbr64
	pushq	%rbp
	.cfi_def_cfa_offset 16
	.cfi_offset 6, -16
	movq	%rsp, %rbp
	.cfi_def_cfa_register 6
	subq	$16, %rsp
	movq	%rdi, -8(%rbp)
	movq	-8(%rbp), %rax
	movq	%rax, %rdi
	call	_ZNSt8_Rb_treeImSt4pairIKmNSt7__cxx1112basic_stringIcSt11char_traitsIcESaIcEEEESt10_Select1stIS8_ESt4lessImESaIS8_EE6_S_keyEPKSt13_Rb_tree_nodeIS8_E
	leave
	.cfi_def_cfa 7, 8
	ret
	.cfi_endproc
.LFE3655:
	.size	_ZNSt8_Rb_treeImSt4pairIKmNSt7__cxx1112basic_stringIcSt11char_traitsIcESaIcEEEESt10_Select1stIS8_ESt4lessImESaIS8_EE6_S_keyEPKSt18_Rb_tree_node_base, .-_ZNSt8_Rb_treeImSt4pairIKmNSt7__cxx1112basic_stringIcSt11char_traitsIcESaIcEEEESt10_Select1stIS8_ESt4lessImESaIS8_EE6_S_keyEPKSt18_Rb_tree_node_base
	.section	.text._ZNSt4pairIPSt18_Rb_tree_node_baseS1_EC2IRS1_Lb1EEEOT_RKS1_,"axG",@progbits,_ZNSt4pairIPSt18_Rb_tree_node_baseS1_EC5IRS1_Lb1EEEOT_RKS1_,comdat
	.align 2
	.weak	_ZNSt4pairIPSt18_Rb_tree_node_baseS1_EC2IRS1_Lb1EEEOT_RKS1_
	.type	_ZNSt4pairIPSt18_Rb_tree_node_baseS1_EC2IRS1_Lb1EEEOT_RKS1_, @function
_ZNSt4pairIPSt18_Rb_tree_node_baseS1_EC2IRS1_Lb1EEEOT_RKS1_:
.LFB3657:
	.cfi_startproc
	endbr64
	pushq	%rbp
	.cfi_def_cfa_offset 16
	.cfi_offset 6, -16
	movq	%rsp, %rbp
	.cfi_def_cfa_register 6
	subq	$32, %rsp
	movq	%rdi, -8(%rbp)
	movq	%rsi, -16(%rbp)
	movq	%rdx, -24(%rbp)
	movq	-16(%rbp), %rax
	movq	%rax, %rdi
	call	_ZSt7forwardIRPSt18_Rb_tree_node_baseEOT_RNSt16remove_referenceIS3_E4typeE
	movq	(%rax), %rdx
	movq	-8(%rbp), %rax
	movq	%rdx, (%rax)
	movq	-24(%rbp), %rax
	movq	(%rax), %rdx
	movq	-8(%rbp), %rax
	movq	%rdx, 8(%rax)
	nop
	leave
	.cfi_def_cfa 7, 8
	ret
	.cfi_endproc
.LFE3657:
	.size	_ZNSt4pairIPSt18_Rb_tree_node_baseS1_EC2IRS1_Lb1EEEOT_RKS1_, .-_ZNSt4pairIPSt18_Rb_tree_node_baseS1_EC2IRS1_Lb1EEEOT_RKS1_
	.weak	_ZNSt4pairIPSt18_Rb_tree_node_baseS1_EC1IRS1_Lb1EEEOT_RKS1_
	.set	_ZNSt4pairIPSt18_Rb_tree_node_baseS1_EC1IRS1_Lb1EEEOT_RKS1_,_ZNSt4pairIPSt18_Rb_tree_node_baseS1_EC2IRS1_Lb1EEEOT_RKS1_
	.section	.text._ZNKSt13_Rb_tree_nodeISt4pairIKmNSt7__cxx1112basic_stringIcSt11char_traitsIcESaIcEEEEE9_M_valptrEv,"axG",@progbits,_ZNKSt13_Rb_tree_nodeISt4pairIKmNSt7__cxx1112basic_stringIcSt11char_traitsIcESaIcEEEEE9_M_valptrEv,comdat
	.align 2
	.weak	_ZNKSt13_Rb_tree_nodeISt4pairIKmNSt7__cxx1112basic_stringIcSt11char_traitsIcESaIcEEEEE9_M_valptrEv
	.type	_ZNKSt13_Rb_tree_nodeISt4pairIKmNSt7__cxx1112basic_stringIcSt11char_traitsIcESaIcEEEEE9_M_valptrEv, @function
_ZNKSt13_Rb_tree_nodeISt4pairIKmNSt7__cxx1112basic_stringIcSt11char_traitsIcESaIcEEEEE9_M_valptrEv:
.LFB3659:
	.cfi_startproc
	endbr64
	pushq	%rbp
	.cfi_def_cfa_offset 16
	.cfi_offset 6, -16
	movq	%rsp, %rbp
	.cfi_def_cfa_register 6
	subq	$16, %rsp
	movq	%rdi, -8(%rbp)
	movq	-8(%rbp), %rax
	addq	$32, %rax
	movq	%rax, %rdi
	call	_ZNK9__gnu_cxx16__aligned_membufISt4pairIKmNSt7__cxx1112basic_stringIcSt11char_traitsIcESaIcEEEEE6_M_ptrEv
	leave
	.cfi_def_cfa 7, 8
	ret
	.cfi_endproc
.LFE3659:
	.size	_ZNKSt13_Rb_tree_nodeISt4pairIKmNSt7__cxx1112basic_stringIcSt11char_traitsIcESaIcEEEEE9_M_valptrEv, .-_ZNKSt13_Rb_tree_nodeISt4pairIKmNSt7__cxx1112basic_stringIcSt11char_traitsIcESaIcEEEEE9_M_valptrEv
	.section	.text._ZNKSt10_Select1stISt4pairIKmNSt7__cxx1112basic_stringIcSt11char_traitsIcESaIcEEEEEclERKS8_,"axG",@progbits,_ZNKSt10_Select1stISt4pairIKmNSt7__cxx1112basic_stringIcSt11char_traitsIcESaIcEEEEEclERKS8_,comdat
	.align 2
	.weak	_ZNKSt10_Select1stISt4pairIKmNSt7__cxx1112basic_stringIcSt11char_traitsIcESaIcEEEEEclERKS8_
	.type	_ZNKSt10_Select1stISt4pairIKmNSt7__cxx1112basic_stringIcSt11char_traitsIcESaIcEEEEEclERKS8_, @function
_ZNKSt10_Select1stISt4pairIKmNSt7__cxx1112basic_stringIcSt11char_traitsIcESaIcEEEEEclERKS8_:
.LFB3660:
	.cfi_startproc
	endbr64
	pushq	%rbp
	.cfi_def_cfa_offset 16
	.cfi_offset 6, -16
	movq	%rsp, %rbp
	.cfi_def_cfa_register 6
	movq	%rdi, -8(%rbp)
	movq	%rsi, -16(%rbp)
	movq	-16(%rbp), %rax
	popq	%rbp
	.cfi_def_cfa 7, 8
	ret
	.cfi_endproc
.LFE3660:
	.size	_ZNKSt10_Select1stISt4pairIKmNSt7__cxx1112basic_stringIcSt11char_traitsIcESaIcEEEEEclERKS8_, .-_ZNKSt10_Select1stISt4pairIKmNSt7__cxx1112basic_stringIcSt11char_traitsIcESaIcEEEEEclERKS8_
	.section	.text._ZSt7forwardISt17_Rb_tree_iteratorISt4pairIKmNSt7__cxx1112basic_stringIcSt11char_traitsIcESaIcEEEEEEOT_RNSt16remove_referenceISB_E4typeE,"axG",@progbits,_ZSt7forwardISt17_Rb_tree_iteratorISt4pairIKmNSt7__cxx1112basic_stringIcSt11char_traitsIcESaIcEEEEEEOT_RNSt16remove_referenceISB_E4typeE,comdat
	.weak	_ZSt7forwardISt17_Rb_tree_iteratorISt4pairIKmNSt7__cxx1112basic_stringIcSt11char_traitsIcESaIcEEEEEEOT_RNSt16remove_referenceISB_E4typeE
	.type	_ZSt7forwardISt17_Rb_tree_iteratorISt4pairIKmNSt7__cxx1112basic_stringIcSt11char_traitsIcESaIcEEEEEEOT_RNSt16remove_referenceISB_E4typeE, @function
_ZSt7forwardISt17_Rb_tree_iteratorISt4pairIKmNSt7__cxx1112basic_stringIcSt11char_traitsIcESaIcEEEEEEOT_RNSt16remove_referenceISB_E4typeE:
.LFB3661:
	.cfi_startproc
	endbr64
	pushq	%rbp
	.cfi_def_cfa_offset 16
	.cfi_offset 6, -16
	movq	%rsp, %rbp
	.cfi_def_cfa_register 6
	movq	%rdi, -8(%rbp)
	movq	-8(%rbp), %rax
	popq	%rbp
	.cfi_def_cfa 7, 8
	ret
	.cfi_endproc
.LFE3661:
	.size	_ZSt7forwardISt17_Rb_tree_iteratorISt4pairIKmNSt7__cxx1112basic_stringIcSt11char_traitsIcESaIcEEEEEEOT_RNSt16remove_referenceISB_E4typeE, .-_ZSt7forwardISt17_Rb_tree_iteratorISt4pairIKmNSt7__cxx1112basic_stringIcSt11char_traitsIcESaIcEEEEEEOT_RNSt16remove_referenceISB_E4typeE
	.section	.text._ZSt7forwardIbEOT_RNSt16remove_referenceIS0_E4typeE,"axG",@progbits,_ZSt7forwardIbEOT_RNSt16remove_referenceIS0_E4typeE,comdat
	.weak	_ZSt7forwardIbEOT_RNSt16remove_referenceIS0_E4typeE
	.type	_ZSt7forwardIbEOT_RNSt16remove_referenceIS0_E4typeE, @function
_ZSt7forwardIbEOT_RNSt16remove_referenceIS0_E4typeE:
.LFB3662:
	.cfi_startproc
	endbr64
	pushq	%rbp
	.cfi_def_cfa_offset 16
	.cfi_offset 6, -16
	movq	%rsp, %rbp
	.cfi_def_cfa_register 6
	movq	%rdi, -8(%rbp)
	movq	-8(%rbp), %rax
	popq	%rbp
	.cfi_def_cfa 7, 8
	ret
	.cfi_endproc
.LFE3662:
	.size	_ZSt7forwardIbEOT_RNSt16remove_referenceIS0_E4typeE, .-_ZSt7forwardIbEOT_RNSt16remove_referenceIS0_E4typeE
	.section	.text._ZNKSt8_Rb_treeImSt4pairIKmNSt7__cxx1112basic_stringIcSt11char_traitsIcESaIcEEEESt10_Select1stIS8_ESt4lessImESaIS8_EE11_Alloc_nodeclIS8_EEPSt13_Rb_tree_nodeIS8_EOT_,"axG",@progbits,_ZNKSt8_Rb_treeImSt4pairIKmNSt7__cxx1112basic_stringIcSt11char_traitsIcESaIcEEEESt10_Select1stIS8_ESt4lessImESaIS8_EE11_Alloc_nodeclIS8_EEPSt13_Rb_tree_nodeIS8_EOT_,comdat
	.align 2
	.weak	_ZNKSt8_Rb_treeImSt4pairIKmNSt7__cxx1112basic_stringIcSt11char_traitsIcESaIcEEEESt10_Select1stIS8_ESt4lessImESaIS8_EE11_Alloc_nodeclIS8_EEPSt13_Rb_tree_nodeIS8_EOT_
	.type	_ZNKSt8_Rb_treeImSt4pairIKmNSt7__cxx1112basic_stringIcSt11char_traitsIcESaIcEEEESt10_Select1stIS8_ESt4lessImESaIS8_EE11_Alloc_nodeclIS8_EEPSt13_Rb_tree_nodeIS8_EOT_, @function
_ZNKSt8_Rb_treeImSt4pairIKmNSt7__cxx1112basic_stringIcSt11char_traitsIcESaIcEEEESt10_Select1stIS8_ESt4lessImESaIS8_EE11_Alloc_nodeclIS8_EEPSt13_Rb_tree_nodeIS8_EOT_:
.LFB3663:
	.cfi_startproc
	endbr64
	pushq	%rbp
	.cfi_def_cfa_offset 16
	.cfi_offset 6, -16
	movq	%rsp, %rbp
	.cfi_def_cfa_register 6
	pushq	%rbx
	subq	$24, %rsp
	.cfi_offset 3, -24
	movq	%rdi, -24(%rbp)
	movq	%rsi, -32(%rbp)
	movq	-24(%rbp), %rax
	movq	(%rax), %rbx
	movq	-32(%rbp), %rax
	movq	%rax, %rdi
	call	_ZSt7forwardISt4pairIKmNSt7__cxx1112basic_stringIcSt11char_traitsIcESaIcEEEEEOT_RNSt16remove_referenceIS9_E4typeE
	movq	%rax, %rsi
	movq	%rbx, %rdi
	call	_ZNSt8_Rb_treeImSt4pairIKmNSt7__cxx1112basic_stringIcSt11char_traitsIcESaIcEEEESt10_Select1stIS8_ESt4lessImESaIS8_EE14_M_create_nodeIJS8_EEEPSt13_Rb_tree_nodeIS8_EDpOT_
	movq	-8(%rbp), %rbx
	leave
	.cfi_def_cfa 7, 8
	ret
	.cfi_endproc
.LFE3663:
	.size	_ZNKSt8_Rb_treeImSt4pairIKmNSt7__cxx1112basic_stringIcSt11char_traitsIcESaIcEEEESt10_Select1stIS8_ESt4lessImESaIS8_EE11_Alloc_nodeclIS8_EEPSt13_Rb_tree_nodeIS8_EOT_, .-_ZNKSt8_Rb_treeImSt4pairIKmNSt7__cxx1112basic_stringIcSt11char_traitsIcESaIcEEEESt10_Select1stIS8_ESt4lessImESaIS8_EE11_Alloc_nodeclIS8_EEPSt13_Rb_tree_nodeIS8_EOT_
	.section	.text._ZNSt8_Rb_treeImSt4pairIKmNSt7__cxx1112basic_stringIcSt11char_traitsIcESaIcEEEESt10_Select1stIS8_ESt4lessImESaIS8_EE21_M_get_Node_allocatorEv,"axG",@progbits,_ZNSt8_Rb_treeImSt4pairIKmNSt7__cxx1112basic_stringIcSt11char_traitsIcESaIcEEEESt10_Select1stIS8_ESt4lessImESaIS8_EE21_M_get_Node_allocatorEv,comdat
	.align 2
	.weak	_ZNSt8_Rb_treeImSt4pairIKmNSt7__cxx1112basic_stringIcSt11char_traitsIcESaIcEEEESt10_Select1stIS8_ESt4lessImESaIS8_EE21_M_get_Node_allocatorEv
	.type	_ZNSt8_Rb_treeImSt4pairIKmNSt7__cxx1112basic_stringIcSt11char_traitsIcESaIcEEEESt10_Select1stIS8_ESt4lessImESaIS8_EE21_M_get_Node_allocatorEv, @function
_ZNSt8_Rb_treeImSt4pairIKmNSt7__cxx1112basic_stringIcSt11char_traitsIcESaIcEEEESt10_Select1stIS8_ESt4lessImESaIS8_EE21_M_get_Node_allocatorEv:
.LFB3710:
	.cfi_startproc
	endbr64
	pushq	%rbp
	.cfi_def_cfa_offset 16
	.cfi_offset 6, -16
	movq	%rsp, %rbp
	.cfi_def_cfa_register 6
	movq	%rdi, -8(%rbp)
	movq	-8(%rbp), %rax
	popq	%rbp
	.cfi_def_cfa 7, 8
	ret
	.cfi_endproc
.LFE3710:
	.size	_ZNSt8_Rb_treeImSt4pairIKmNSt7__cxx1112basic_stringIcSt11char_traitsIcESaIcEEEESt10_Select1stIS8_ESt4lessImESaIS8_EE21_M_get_Node_allocatorEv, .-_ZNSt8_Rb_treeImSt4pairIKmNSt7__cxx1112basic_stringIcSt11char_traitsIcESaIcEEEESt10_Select1stIS8_ESt4lessImESaIS8_EE21_M_get_Node_allocatorEv
	.section	.text._ZNSt16allocator_traitsISaISt13_Rb_tree_nodeISt4pairIKmNSt7__cxx1112basic_stringIcSt11char_traitsIcESaIcEEEEEEE7destroyIS9_EEvRSB_PT_,"axG",@progbits,_ZNSt16allocator_traitsISaISt13_Rb_tree_nodeISt4pairIKmNSt7__cxx1112basic_stringIcSt11char_traitsIcESaIcEEEEEEE7destroyIS9_EEvRSB_PT_,comdat
	.weak	_ZNSt16allocator_traitsISaISt13_Rb_tree_nodeISt4pairIKmNSt7__cxx1112basic_stringIcSt11char_traitsIcESaIcEEEEEEE7destroyIS9_EEvRSB_PT_
	.type	_ZNSt16allocator_traitsISaISt13_Rb_tree_nodeISt4pairIKmNSt7__cxx1112basic_stringIcSt11char_traitsIcESaIcEEEEEEE7destroyIS9_EEvRSB_PT_, @function
_ZNSt16allocator_traitsISaISt13_Rb_tree_nodeISt4pairIKmNSt7__cxx1112basic_stringIcSt11char_traitsIcESaIcEEEEEEE7destroyIS9_EEvRSB_PT_:
.LFB3711:
	.cfi_startproc
	endbr64
	pushq	%rbp
	.cfi_def_cfa_offset 16
	.cfi_offset 6, -16
	movq	%rsp, %rbp
	.cfi_def_cfa_register 6
	subq	$16, %rsp
	movq	%rdi, -8(%rbp)
	movq	%rsi, -16(%rbp)
	movq	-16(%rbp), %rdx
	movq	-8(%rbp), %rax
	movq	%rdx, %rsi
	movq	%rax, %rdi
	call	_ZN9__gnu_cxx13new_allocatorISt13_Rb_tree_nodeISt4pairIKmNSt7__cxx1112basic_stringIcSt11char_traitsIcESaIcEEEEEE7destroyISA_EEvPT_
	nop
	leave
	.cfi_def_cfa 7, 8
	ret
	.cfi_endproc
.LFE3711:
	.size	_ZNSt16allocator_traitsISaISt13_Rb_tree_nodeISt4pairIKmNSt7__cxx1112basic_stringIcSt11char_traitsIcESaIcEEEEEEE7destroyIS9_EEvRSB_PT_, .-_ZNSt16allocator_traitsISaISt13_Rb_tree_nodeISt4pairIKmNSt7__cxx1112basic_stringIcSt11char_traitsIcESaIcEEEEEEE7destroyIS9_EEvRSB_PT_
	.section	.text._ZNSt16allocator_traitsISaISt13_Rb_tree_nodeISt4pairIKmNSt7__cxx1112basic_stringIcSt11char_traitsIcESaIcEEEEEEE10deallocateERSB_PSA_m,"axG",@progbits,_ZNSt16allocator_traitsISaISt13_Rb_tree_nodeISt4pairIKmNSt7__cxx1112basic_stringIcSt11char_traitsIcESaIcEEEEEEE10deallocateERSB_PSA_m,comdat
	.weak	_ZNSt16allocator_traitsISaISt13_Rb_tree_nodeISt4pairIKmNSt7__cxx1112basic_stringIcSt11char_traitsIcESaIcEEEEEEE10deallocateERSB_PSA_m
	.type	_ZNSt16allocator_traitsISaISt13_Rb_tree_nodeISt4pairIKmNSt7__cxx1112basic_stringIcSt11char_traitsIcESaIcEEEEEEE10deallocateERSB_PSA_m, @function
_ZNSt16allocator_traitsISaISt13_Rb_tree_nodeISt4pairIKmNSt7__cxx1112basic_stringIcSt11char_traitsIcESaIcEEEEEEE10deallocateERSB_PSA_m:
.LFB3712:
	.cfi_startproc
	endbr64
	pushq	%rbp
	.cfi_def_cfa_offset 16
	.cfi_offset 6, -16
	movq	%rsp, %rbp
	.cfi_def_cfa_register 6
	subq	$32, %rsp
	movq	%rdi, -8(%rbp)
	movq	%rsi, -16(%rbp)
	movq	%rdx, -24(%rbp)
	movq	-24(%rbp), %rdx
	movq	-16(%rbp), %rcx
	movq	-8(%rbp), %rax
	movq	%rcx, %rsi
	movq	%rax, %rdi
	call	_ZN9__gnu_cxx13new_allocatorISt13_Rb_tree_nodeISt4pairIKmNSt7__cxx1112basic_stringIcSt11char_traitsIcESaIcEEEEEE10deallocateEPSB_m
	nop
	leave
	.cfi_def_cfa 7, 8
	ret
	.cfi_endproc
.LFE3712:
	.size	_ZNSt16allocator_traitsISaISt13_Rb_tree_nodeISt4pairIKmNSt7__cxx1112basic_stringIcSt11char_traitsIcESaIcEEEEEEE10deallocateERSB_PSA_m, .-_ZNSt16allocator_traitsISaISt13_Rb_tree_nodeISt4pairIKmNSt7__cxx1112basic_stringIcSt11char_traitsIcESaIcEEEEEEE10deallocateERSB_PSA_m
	.section	.text._ZNSt16allocator_traitsISaISt13_Rb_tree_nodeISt4pairIKmNSt7__cxx1112basic_stringIcSt11char_traitsIcESaIcEEEEEEE8allocateERSB_m,"axG",@progbits,_ZNSt16allocator_traitsISaISt13_Rb_tree_nodeISt4pairIKmNSt7__cxx1112basic_stringIcSt11char_traitsIcESaIcEEEEEEE8allocateERSB_m,comdat
	.weak	_ZNSt16allocator_traitsISaISt13_Rb_tree_nodeISt4pairIKmNSt7__cxx1112basic_stringIcSt11char_traitsIcESaIcEEEEEEE8allocateERSB_m
	.type	_ZNSt16allocator_traitsISaISt13_Rb_tree_nodeISt4pairIKmNSt7__cxx1112basic_stringIcSt11char_traitsIcESaIcEEEEEEE8allocateERSB_m, @function
_ZNSt16allocator_traitsISaISt13_Rb_tree_nodeISt4pairIKmNSt7__cxx1112basic_stringIcSt11char_traitsIcESaIcEEEEEEE8allocateERSB_m:
.LFB3718:
	.cfi_startproc
	endbr64
	pushq	%rbp
	.cfi_def_cfa_offset 16
	.cfi_offset 6, -16
	movq	%rsp, %rbp
	.cfi_def_cfa_register 6
	subq	$16, %rsp
	movq	%rdi, -8(%rbp)
	movq	%rsi, -16(%rbp)
	movq	-16(%rbp), %rcx
	movq	-8(%rbp), %rax
	movl	$0, %edx
	movq	%rcx, %rsi
	movq	%rax, %rdi
	call	_ZN9__gnu_cxx13new_allocatorISt13_Rb_tree_nodeISt4pairIKmNSt7__cxx1112basic_stringIcSt11char_traitsIcESaIcEEEEEE8allocateEmPKv
	leave
	.cfi_def_cfa 7, 8
	ret
	.cfi_endproc
.LFE3718:
	.size	_ZNSt16allocator_traitsISaISt13_Rb_tree_nodeISt4pairIKmNSt7__cxx1112basic_stringIcSt11char_traitsIcESaIcEEEEEEE8allocateERSB_m, .-_ZNSt16allocator_traitsISaISt13_Rb_tree_nodeISt4pairIKmNSt7__cxx1112basic_stringIcSt11char_traitsIcESaIcEEEEEEE8allocateERSB_m
	.section	.text._ZNSt16allocator_traitsISaISt13_Rb_tree_nodeISt4pairIKmNSt7__cxx1112basic_stringIcSt11char_traitsIcESaIcEEEEEEE9constructIS9_JS1_ImS8_EEEEvRSB_PT_DpOT0_,"axG",@progbits,_ZNSt16allocator_traitsISaISt13_Rb_tree_nodeISt4pairIKmNSt7__cxx1112basic_stringIcSt11char_traitsIcESaIcEEEEEEE9constructIS9_JS1_ImS8_EEEEvRSB_PT_DpOT0_,comdat
	.weak	_ZNSt16allocator_traitsISaISt13_Rb_tree_nodeISt4pairIKmNSt7__cxx1112basic_stringIcSt11char_traitsIcESaIcEEEEEEE9constructIS9_JS1_ImS8_EEEEvRSB_PT_DpOT0_
	.type	_ZNSt16allocator_traitsISaISt13_Rb_tree_nodeISt4pairIKmNSt7__cxx1112basic_stringIcSt11char_traitsIcESaIcEEEEEEE9constructIS9_JS1_ImS8_EEEEvRSB_PT_DpOT0_, @function
_ZNSt16allocator_traitsISaISt13_Rb_tree_nodeISt4pairIKmNSt7__cxx1112basic_stringIcSt11char_traitsIcESaIcEEEEEEE9constructIS9_JS1_ImS8_EEEEvRSB_PT_DpOT0_:
.LFB3719:
	.cfi_startproc
	endbr64
	pushq	%rbp
	.cfi_def_cfa_offset 16
	.cfi_offset 6, -16
	movq	%rsp, %rbp
	.cfi_def_cfa_register 6
	subq	$32, %rsp
	movq	%rdi, -8(%rbp)
	movq	%rsi, -16(%rbp)
	movq	%rdx, -24(%rbp)
	movq	-24(%rbp), %rax
	movq	%rax, %rdi
	call	_ZSt7forwardISt4pairImNSt7__cxx1112basic_stringIcSt11char_traitsIcESaIcEEEEEOT_RNSt16remove_referenceIS8_E4typeE
	movq	%rax, %rdx
	movq	-16(%rbp), %rcx
	movq	-8(%rbp), %rax
	movq	%rcx, %rsi
	movq	%rax, %rdi
	call	_ZN9__gnu_cxx13new_allocatorISt13_Rb_tree_nodeISt4pairIKmNSt7__cxx1112basic_stringIcSt11char_traitsIcESaIcEEEEEE9constructISA_JS2_ImS9_EEEEvPT_DpOT0_
	nop
	leave
	.cfi_def_cfa 7, 8
	ret
	.cfi_endproc
.LFE3719:
	.size	_ZNSt16allocator_traitsISaISt13_Rb_tree_nodeISt4pairIKmNSt7__cxx1112basic_stringIcSt11char_traitsIcESaIcEEEEEEE9constructIS9_JS1_ImS8_EEEEvRSB_PT_DpOT0_, .-_ZNSt16allocator_traitsISaISt13_Rb_tree_nodeISt4pairIKmNSt7__cxx1112basic_stringIcSt11char_traitsIcESaIcEEEEEEE9constructIS9_JS1_ImS8_EEEEvRSB_PT_DpOT0_
	.section	.text._ZSt7forwardIRPSt13_Rb_tree_nodeISt4pairIKmNSt7__cxx1112basic_stringIcSt11char_traitsIcESaIcEEEEEEOT_RNSt16remove_referenceISD_E4typeE,"axG",@progbits,_ZSt7forwardIRPSt13_Rb_tree_nodeISt4pairIKmNSt7__cxx1112basic_stringIcSt11char_traitsIcESaIcEEEEEEOT_RNSt16remove_referenceISD_E4typeE,comdat
	.weak	_ZSt7forwardIRPSt13_Rb_tree_nodeISt4pairIKmNSt7__cxx1112basic_stringIcSt11char_traitsIcESaIcEEEEEEOT_RNSt16remove_referenceISD_E4typeE
	.type	_ZSt7forwardIRPSt13_Rb_tree_nodeISt4pairIKmNSt7__cxx1112basic_stringIcSt11char_traitsIcESaIcEEEEEEOT_RNSt16remove_referenceISD_E4typeE, @function
_ZSt7forwardIRPSt13_Rb_tree_nodeISt4pairIKmNSt7__cxx1112basic_stringIcSt11char_traitsIcESaIcEEEEEEOT_RNSt16remove_referenceISD_E4typeE:
.LFB3720:
	.cfi_startproc
	endbr64
	pushq	%rbp
	.cfi_def_cfa_offset 16
	.cfi_offset 6, -16
	movq	%rsp, %rbp
	.cfi_def_cfa_register 6
	movq	%rdi, -8(%rbp)
	movq	-8(%rbp), %rax
	popq	%rbp
	.cfi_def_cfa 7, 8
	ret
	.cfi_endproc
.LFE3720:
	.size	_ZSt7forwardIRPSt13_Rb_tree_nodeISt4pairIKmNSt7__cxx1112basic_stringIcSt11char_traitsIcESaIcEEEEEEOT_RNSt16remove_referenceISD_E4typeE, .-_ZSt7forwardIRPSt13_Rb_tree_nodeISt4pairIKmNSt7__cxx1112basic_stringIcSt11char_traitsIcESaIcEEEEEEOT_RNSt16remove_referenceISD_E4typeE
	.section	.text._ZSt7forwardIRPSt18_Rb_tree_node_baseEOT_RNSt16remove_referenceIS3_E4typeE,"axG",@progbits,_ZSt7forwardIRPSt18_Rb_tree_node_baseEOT_RNSt16remove_referenceIS3_E4typeE,comdat
	.weak	_ZSt7forwardIRPSt18_Rb_tree_node_baseEOT_RNSt16remove_referenceIS3_E4typeE
	.type	_ZSt7forwardIRPSt18_Rb_tree_node_baseEOT_RNSt16remove_referenceIS3_E4typeE, @function
_ZSt7forwardIRPSt18_Rb_tree_node_baseEOT_RNSt16remove_referenceIS3_E4typeE:
.LFB3721:
	.cfi_startproc
	endbr64
	pushq	%rbp
	.cfi_def_cfa_offset 16
	.cfi_offset 6, -16
	movq	%rsp, %rbp
	.cfi_def_cfa_register 6
	movq	%rdi, -8(%rbp)
	movq	-8(%rbp), %rax
	popq	%rbp
	.cfi_def_cfa 7, 8
	ret
	.cfi_endproc
.LFE3721:
	.size	_ZSt7forwardIRPSt18_Rb_tree_node_baseEOT_RNSt16remove_referenceIS3_E4typeE, .-_ZSt7forwardIRPSt18_Rb_tree_node_baseEOT_RNSt16remove_referenceIS3_E4typeE
	.section	.text._ZNK9__gnu_cxx16__aligned_membufISt4pairIKmNSt7__cxx1112basic_stringIcSt11char_traitsIcESaIcEEEEE6_M_ptrEv,"axG",@progbits,_ZNK9__gnu_cxx16__aligned_membufISt4pairIKmNSt7__cxx1112basic_stringIcSt11char_traitsIcESaIcEEEEE6_M_ptrEv,comdat
	.align 2
	.weak	_ZNK9__gnu_cxx16__aligned_membufISt4pairIKmNSt7__cxx1112basic_stringIcSt11char_traitsIcESaIcEEEEE6_M_ptrEv
	.type	_ZNK9__gnu_cxx16__aligned_membufISt4pairIKmNSt7__cxx1112basic_stringIcSt11char_traitsIcESaIcEEEEE6_M_ptrEv, @function
_ZNK9__gnu_cxx16__aligned_membufISt4pairIKmNSt7__cxx1112basic_stringIcSt11char_traitsIcESaIcEEEEE6_M_ptrEv:
.LFB3722:
	.cfi_startproc
	endbr64
	pushq	%rbp
	.cfi_def_cfa_offset 16
	.cfi_offset 6, -16
	movq	%rsp, %rbp
	.cfi_def_cfa_register 6
	subq	$16, %rsp
	movq	%rdi, -8(%rbp)
	movq	-8(%rbp), %rax
	movq	%rax, %rdi
	call	_ZNK9__gnu_cxx16__aligned_membufISt4pairIKmNSt7__cxx1112basic_stringIcSt11char_traitsIcESaIcEEEEE7_M_addrEv
	leave
	.cfi_def_cfa 7, 8
	ret
	.cfi_endproc
.LFE3722:
	.size	_ZNK9__gnu_cxx16__aligned_membufISt4pairIKmNSt7__cxx1112basic_stringIcSt11char_traitsIcESaIcEEEEE6_M_ptrEv, .-_ZNK9__gnu_cxx16__aligned_membufISt4pairIKmNSt7__cxx1112basic_stringIcSt11char_traitsIcESaIcEEEEE6_M_ptrEv
	.section	.text._ZNSt8_Rb_treeImSt4pairIKmNSt7__cxx1112basic_stringIcSt11char_traitsIcESaIcEEEESt10_Select1stIS8_ESt4lessImESaIS8_EE14_M_create_nodeIJS8_EEEPSt13_Rb_tree_nodeIS8_EDpOT_,"axG",@progbits,_ZNSt8_Rb_treeImSt4pairIKmNSt7__cxx1112basic_stringIcSt11char_traitsIcESaIcEEEESt10_Select1stIS8_ESt4lessImESaIS8_EE14_M_create_nodeIJS8_EEEPSt13_Rb_tree_nodeIS8_EDpOT_,comdat
	.align 2
	.weak	_ZNSt8_Rb_treeImSt4pairIKmNSt7__cxx1112basic_stringIcSt11char_traitsIcESaIcEEEESt10_Select1stIS8_ESt4lessImESaIS8_EE14_M_create_nodeIJS8_EEEPSt13_Rb_tree_nodeIS8_EDpOT_
	.type	_ZNSt8_Rb_treeImSt4pairIKmNSt7__cxx1112basic_stringIcSt11char_traitsIcESaIcEEEESt10_Select1stIS8_ESt4lessImESaIS8_EE14_M_create_nodeIJS8_EEEPSt13_Rb_tree_nodeIS8_EDpOT_, @function
_ZNSt8_Rb_treeImSt4pairIKmNSt7__cxx1112basic_stringIcSt11char_traitsIcESaIcEEEESt10_Select1stIS8_ESt4lessImESaIS8_EE14_M_create_nodeIJS8_EEEPSt13_Rb_tree_nodeIS8_EDpOT_:
.LFB3723:
	.cfi_startproc
	endbr64
	pushq	%rbp
	.cfi_def_cfa_offset 16
	.cfi_offset 6, -16
	movq	%rsp, %rbp
	.cfi_def_cfa_register 6
	subq	$32, %rsp
	movq	%rdi, -24(%rbp)
	movq	%rsi, -32(%rbp)
	movq	-24(%rbp), %rax
	movq	%rax, %rdi
	call	_ZNSt8_Rb_treeImSt4pairIKmNSt7__cxx1112basic_stringIcSt11char_traitsIcESaIcEEEESt10_Select1stIS8_ESt4lessImESaIS8_EE11_M_get_nodeEv
	movq	%rax, -8(%rbp)
	movq	-32(%rbp), %rax
	movq	%rax, %rdi
	call	_ZSt7forwardISt4pairIKmNSt7__cxx1112basic_stringIcSt11char_traitsIcESaIcEEEEEOT_RNSt16remove_referenceIS9_E4typeE
	movq	%rax, %rdx
	movq	-8(%rbp), %rcx
	movq	-24(%rbp), %rax
	movq	%rcx, %rsi
	movq	%rax, %rdi
	call	_ZNSt8_Rb_treeImSt4pairIKmNSt7__cxx1112basic_stringIcSt11char_traitsIcESaIcEEEESt10_Select1stIS8_ESt4lessImESaIS8_EE17_M_construct_nodeIJS8_EEEvPSt13_Rb_tree_nodeIS8_EDpOT_
	movq	-8(%rbp), %rax
	leave
	.cfi_def_cfa 7, 8
	ret
	.cfi_endproc
.LFE3723:
	.size	_ZNSt8_Rb_treeImSt4pairIKmNSt7__cxx1112basic_stringIcSt11char_traitsIcESaIcEEEESt10_Select1stIS8_ESt4lessImESaIS8_EE14_M_create_nodeIJS8_EEEPSt13_Rb_tree_nodeIS8_EDpOT_, .-_ZNSt8_Rb_treeImSt4pairIKmNSt7__cxx1112basic_stringIcSt11char_traitsIcESaIcEEEESt10_Select1stIS8_ESt4lessImESaIS8_EE14_M_create_nodeIJS8_EEEPSt13_Rb_tree_nodeIS8_EDpOT_
	.section	.text._ZN9__gnu_cxx13new_allocatorISt13_Rb_tree_nodeISt4pairIKmNSt7__cxx1112basic_stringIcSt11char_traitsIcESaIcEEEEEE7destroyISA_EEvPT_,"axG",@progbits,_ZN9__gnu_cxx13new_allocatorISt13_Rb_tree_nodeISt4pairIKmNSt7__cxx1112basic_stringIcSt11char_traitsIcESaIcEEEEEE7destroyISA_EEvPT_,comdat
	.align 2
	.weak	_ZN9__gnu_cxx13new_allocatorISt13_Rb_tree_nodeISt4pairIKmNSt7__cxx1112basic_stringIcSt11char_traitsIcESaIcEEEEEE7destroyISA_EEvPT_
	.type	_ZN9__gnu_cxx13new_allocatorISt13_Rb_tree_nodeISt4pairIKmNSt7__cxx1112basic_stringIcSt11char_traitsIcESaIcEEEEEE7destroyISA_EEvPT_, @function
_ZN9__gnu_cxx13new_allocatorISt13_Rb_tree_nodeISt4pairIKmNSt7__cxx1112basic_stringIcSt11char_traitsIcESaIcEEEEEE7destroyISA_EEvPT_:
.LFB3743:
	.cfi_startproc
	endbr64
	pushq	%rbp
	.cfi_def_cfa_offset 16
	.cfi_offset 6, -16
	movq	%rsp, %rbp
	.cfi_def_cfa_register 6
	subq	$16, %rsp
	movq	%rdi, -8(%rbp)
	movq	%rsi, -16(%rbp)
	movq	-16(%rbp), %rax
	movq	%rax, %rdi
	call	_ZNSt4pairIKmNSt7__cxx1112basic_stringIcSt11char_traitsIcESaIcEEEED1Ev
	nop
	leave
	.cfi_def_cfa 7, 8
	ret
	.cfi_endproc
.LFE3743:
	.size	_ZN9__gnu_cxx13new_allocatorISt13_Rb_tree_nodeISt4pairIKmNSt7__cxx1112basic_stringIcSt11char_traitsIcESaIcEEEEEE7destroyISA_EEvPT_, .-_ZN9__gnu_cxx13new_allocatorISt13_Rb_tree_nodeISt4pairIKmNSt7__cxx1112basic_stringIcSt11char_traitsIcESaIcEEEEEE7destroyISA_EEvPT_
	.section	.text._ZN9__gnu_cxx13new_allocatorISt13_Rb_tree_nodeISt4pairIKmNSt7__cxx1112basic_stringIcSt11char_traitsIcESaIcEEEEEE10deallocateEPSB_m,"axG",@progbits,_ZN9__gnu_cxx13new_allocatorISt13_Rb_tree_nodeISt4pairIKmNSt7__cxx1112basic_stringIcSt11char_traitsIcESaIcEEEEEE10deallocateEPSB_m,comdat
	.align 2
	.weak	_ZN9__gnu_cxx13new_allocatorISt13_Rb_tree_nodeISt4pairIKmNSt7__cxx1112basic_stringIcSt11char_traitsIcESaIcEEEEEE10deallocateEPSB_m
	.type	_ZN9__gnu_cxx13new_allocatorISt13_Rb_tree_nodeISt4pairIKmNSt7__cxx1112basic_stringIcSt11char_traitsIcESaIcEEEEEE10deallocateEPSB_m, @function
_ZN9__gnu_cxx13new_allocatorISt13_Rb_tree_nodeISt4pairIKmNSt7__cxx1112basic_stringIcSt11char_traitsIcESaIcEEEEEE10deallocateEPSB_m:
.LFB3744:
	.cfi_startproc
	endbr64
	pushq	%rbp
	.cfi_def_cfa_offset 16
	.cfi_offset 6, -16
	movq	%rsp, %rbp
	.cfi_def_cfa_register 6
	subq	$32, %rsp
	movq	%rdi, -8(%rbp)
	movq	%rsi, -16(%rbp)
	movq	%rdx, -24(%rbp)
	movq	-24(%rbp), %rdx
	movq	%rdx, %rax
	salq	$3, %rax
	addq	%rdx, %rax
	salq	$3, %rax
	movq	%rax, %rdx
	movq	-16(%rbp), %rax
	movq	%rdx, %rsi
	movq	%rax, %rdi
	call	_ZdlPvm@PLT
	leave
	.cfi_def_cfa 7, 8
	ret
	.cfi_endproc
.LFE3744:
	.size	_ZN9__gnu_cxx13new_allocatorISt13_Rb_tree_nodeISt4pairIKmNSt7__cxx1112basic_stringIcSt11char_traitsIcESaIcEEEEEE10deallocateEPSB_m, .-_ZN9__gnu_cxx13new_allocatorISt13_Rb_tree_nodeISt4pairIKmNSt7__cxx1112basic_stringIcSt11char_traitsIcESaIcEEEEEE10deallocateEPSB_m
	.section	.text._ZNK9__gnu_cxx13new_allocatorISt13_Rb_tree_nodeISt4pairIKmNSt7__cxx1112basic_stringIcSt11char_traitsIcESaIcEEEEEE11_M_max_sizeEv,"axG",@progbits,_ZNK9__gnu_cxx13new_allocatorISt13_Rb_tree_nodeISt4pairIKmNSt7__cxx1112basic_stringIcSt11char_traitsIcESaIcEEEEEE11_M_max_sizeEv,comdat
	.align 2
	.weak	_ZNK9__gnu_cxx13new_allocatorISt13_Rb_tree_nodeISt4pairIKmNSt7__cxx1112basic_stringIcSt11char_traitsIcESaIcEEEEEE11_M_max_sizeEv
	.type	_ZNK9__gnu_cxx13new_allocatorISt13_Rb_tree_nodeISt4pairIKmNSt7__cxx1112basic_stringIcSt11char_traitsIcESaIcEEEEEE11_M_max_sizeEv, @function
_ZNK9__gnu_cxx13new_allocatorISt13_Rb_tree_nodeISt4pairIKmNSt7__cxx1112basic_stringIcSt11char_traitsIcESaIcEEEEEE11_M_max_sizeEv:
.LFB3747:
	.cfi_startproc
	endbr64
	pushq	%rbp
	.cfi_def_cfa_offset 16
	.cfi_offset 6, -16
	movq	%rsp, %rbp
	.cfi_def_cfa_register 6
	movq	%rdi, -8(%rbp)
	movabsq	$128102389400760775, %rax
	popq	%rbp
	.cfi_def_cfa 7, 8
	ret
	.cfi_endproc
.LFE3747:
	.size	_ZNK9__gnu_cxx13new_allocatorISt13_Rb_tree_nodeISt4pairIKmNSt7__cxx1112basic_stringIcSt11char_traitsIcESaIcEEEEEE11_M_max_sizeEv, .-_ZNK9__gnu_cxx13new_allocatorISt13_Rb_tree_nodeISt4pairIKmNSt7__cxx1112basic_stringIcSt11char_traitsIcESaIcEEEEEE11_M_max_sizeEv
	.section	.text._ZN9__gnu_cxx13new_allocatorISt13_Rb_tree_nodeISt4pairIKmNSt7__cxx1112basic_stringIcSt11char_traitsIcESaIcEEEEEE8allocateEmPKv,"axG",@progbits,_ZN9__gnu_cxx13new_allocatorISt13_Rb_tree_nodeISt4pairIKmNSt7__cxx1112basic_stringIcSt11char_traitsIcESaIcEEEEEE8allocateEmPKv,comdat
	.align 2
	.weak	_ZN9__gnu_cxx13new_allocatorISt13_Rb_tree_nodeISt4pairIKmNSt7__cxx1112basic_stringIcSt11char_traitsIcESaIcEEEEEE8allocateEmPKv
	.type	_ZN9__gnu_cxx13new_allocatorISt13_Rb_tree_nodeISt4pairIKmNSt7__cxx1112basic_stringIcSt11char_traitsIcESaIcEEEEEE8allocateEmPKv, @function
_ZN9__gnu_cxx13new_allocatorISt13_Rb_tree_nodeISt4pairIKmNSt7__cxx1112basic_stringIcSt11char_traitsIcESaIcEEEEEE8allocateEmPKv:
.LFB3746:
	.cfi_startproc
	endbr64
	pushq	%rbp
	.cfi_def_cfa_offset 16
	.cfi_offset 6, -16
	movq	%rsp, %rbp
	.cfi_def_cfa_register 6
	subq	$32, %rsp
	movq	%rdi, -8(%rbp)
	movq	%rsi, -16(%rbp)
	movq	%rdx, -24(%rbp)
	movq	-8(%rbp), %rax
	movq	%rax, %rdi
	call	_ZNK9__gnu_cxx13new_allocatorISt13_Rb_tree_nodeISt4pairIKmNSt7__cxx1112basic_stringIcSt11char_traitsIcESaIcEEEEEE11_M_max_sizeEv
	cmpq	%rax, -16(%rbp)
	seta	%al
	movzbl	%al, %eax
	testq	%rax, %rax
	setne	%al
	testb	%al, %al
	je	.L229
	movabsq	$256204778801521550, %rax
	cmpq	%rax, -16(%rbp)
	jbe	.L230
	call	_ZSt28__throw_bad_array_new_lengthv@PLT
.L230:
	call	_ZSt17__throw_bad_allocv@PLT
.L229:
	movq	-16(%rbp), %rdx
	movq	%rdx, %rax
	salq	$3, %rax
	addq	%rdx, %rax
	salq	$3, %rax
	movq	%rax, %rdi
	call	_Znwm@PLT
	nop
	leave
	.cfi_def_cfa 7, 8
	ret
	.cfi_endproc
.LFE3746:
	.size	_ZN9__gnu_cxx13new_allocatorISt13_Rb_tree_nodeISt4pairIKmNSt7__cxx1112basic_stringIcSt11char_traitsIcESaIcEEEEEE8allocateEmPKv, .-_ZN9__gnu_cxx13new_allocatorISt13_Rb_tree_nodeISt4pairIKmNSt7__cxx1112basic_stringIcSt11char_traitsIcESaIcEEEEEE8allocateEmPKv
	.section	.text._ZN9__gnu_cxx13new_allocatorISt13_Rb_tree_nodeISt4pairIKmNSt7__cxx1112basic_stringIcSt11char_traitsIcESaIcEEEEEE9constructISA_JS2_ImS9_EEEEvPT_DpOT0_,"axG",@progbits,_ZN9__gnu_cxx13new_allocatorISt13_Rb_tree_nodeISt4pairIKmNSt7__cxx1112basic_stringIcSt11char_traitsIcESaIcEEEEEE9constructISA_JS2_ImS9_EEEEvPT_DpOT0_,comdat
	.align 2
	.weak	_ZN9__gnu_cxx13new_allocatorISt13_Rb_tree_nodeISt4pairIKmNSt7__cxx1112basic_stringIcSt11char_traitsIcESaIcEEEEEE9constructISA_JS2_ImS9_EEEEvPT_DpOT0_
	.type	_ZN9__gnu_cxx13new_allocatorISt13_Rb_tree_nodeISt4pairIKmNSt7__cxx1112basic_stringIcSt11char_traitsIcESaIcEEEEEE9constructISA_JS2_ImS9_EEEEvPT_DpOT0_, @function
_ZN9__gnu_cxx13new_allocatorISt13_Rb_tree_nodeISt4pairIKmNSt7__cxx1112basic_stringIcSt11char_traitsIcESaIcEEEEEE9constructISA_JS2_ImS9_EEEEvPT_DpOT0_:
.LFB3748:
	.cfi_startproc
	endbr64
	pushq	%rbp
	.cfi_def_cfa_offset 16
	.cfi_offset 6, -16
	movq	%rsp, %rbp
	.cfi_def_cfa_register 6
	pushq	%rbx
	subq	$40, %rsp
	.cfi_offset 3, -24
	movq	%rdi, -24(%rbp)
	movq	%rsi, -32(%rbp)
	movq	%rdx, -40(%rbp)
	movq	-40(%rbp), %rax
	movq	%rax, %rdi
	call	_ZSt7forwardISt4pairImNSt7__cxx1112basic_stringIcSt11char_traitsIcESaIcEEEEEOT_RNSt16remove_referenceIS8_E4typeE
	movq	%rax, %rbx
	movq	-32(%rbp), %rax
	movq	%rax, %rsi
	movl	$40, %edi
	call	_ZnwmPv
	movq	%rbx, %rsi
	movq	%rax, %rdi
	call	_ZNSt4pairIKmNSt7__cxx1112basic_stringIcSt11char_traitsIcESaIcEEEEC1ImS6_Lb1EEEOS_IT_T0_E
	nop
	movq	-8(%rbp), %rbx
	leave
	.cfi_def_cfa 7, 8
	ret
	.cfi_endproc
.LFE3748:
	.size	_ZN9__gnu_cxx13new_allocatorISt13_Rb_tree_nodeISt4pairIKmNSt7__cxx1112basic_stringIcSt11char_traitsIcESaIcEEEEEE9constructISA_JS2_ImS9_EEEEvPT_DpOT0_, .-_ZN9__gnu_cxx13new_allocatorISt13_Rb_tree_nodeISt4pairIKmNSt7__cxx1112basic_stringIcSt11char_traitsIcESaIcEEEEEE9constructISA_JS2_ImS9_EEEEvPT_DpOT0_
	.section	.text._ZNK9__gnu_cxx16__aligned_membufISt4pairIKmNSt7__cxx1112basic_stringIcSt11char_traitsIcESaIcEEEEE7_M_addrEv,"axG",@progbits,_ZNK9__gnu_cxx16__aligned_membufISt4pairIKmNSt7__cxx1112basic_stringIcSt11char_traitsIcESaIcEEEEE7_M_addrEv,comdat
	.align 2
	.weak	_ZNK9__gnu_cxx16__aligned_membufISt4pairIKmNSt7__cxx1112basic_stringIcSt11char_traitsIcESaIcEEEEE7_M_addrEv
	.type	_ZNK9__gnu_cxx16__aligned_membufISt4pairIKmNSt7__cxx1112basic_stringIcSt11char_traitsIcESaIcEEEEE7_M_addrEv, @function
_ZNK9__gnu_cxx16__aligned_membufISt4pairIKmNSt7__cxx1112basic_stringIcSt11char_traitsIcESaIcEEEEE7_M_addrEv:
.LFB3749:
	.cfi_startproc
	endbr64
	pushq	%rbp
	.cfi_def_cfa_offset 16
	.cfi_offset 6, -16
	movq	%rsp, %rbp
	.cfi_def_cfa_register 6
	movq	%rdi, -8(%rbp)
	movq	-8(%rbp), %rax
	popq	%rbp
	.cfi_def_cfa 7, 8
	ret
	.cfi_endproc
.LFE3749:
	.size	_ZNK9__gnu_cxx16__aligned_membufISt4pairIKmNSt7__cxx1112basic_stringIcSt11char_traitsIcESaIcEEEEE7_M_addrEv, .-_ZNK9__gnu_cxx16__aligned_membufISt4pairIKmNSt7__cxx1112basic_stringIcSt11char_traitsIcESaIcEEEEE7_M_addrEv
	.section	.text._ZNSt8_Rb_treeImSt4pairIKmNSt7__cxx1112basic_stringIcSt11char_traitsIcESaIcEEEESt10_Select1stIS8_ESt4lessImESaIS8_EE17_M_construct_nodeIJS8_EEEvPSt13_Rb_tree_nodeIS8_EDpOT_,"axG",@progbits,_ZNSt8_Rb_treeImSt4pairIKmNSt7__cxx1112basic_stringIcSt11char_traitsIcESaIcEEEESt10_Select1stIS8_ESt4lessImESaIS8_EE17_M_construct_nodeIJS8_EEEvPSt13_Rb_tree_nodeIS8_EDpOT_,comdat
	.align 2
	.weak	_ZNSt8_Rb_treeImSt4pairIKmNSt7__cxx1112basic_stringIcSt11char_traitsIcESaIcEEEESt10_Select1stIS8_ESt4lessImESaIS8_EE17_M_construct_nodeIJS8_EEEvPSt13_Rb_tree_nodeIS8_EDpOT_
	.type	_ZNSt8_Rb_treeImSt4pairIKmNSt7__cxx1112basic_stringIcSt11char_traitsIcESaIcEEEESt10_Select1stIS8_ESt4lessImESaIS8_EE17_M_construct_nodeIJS8_EEEvPSt13_Rb_tree_nodeIS8_EDpOT_, @function
_ZNSt8_Rb_treeImSt4pairIKmNSt7__cxx1112basic_stringIcSt11char_traitsIcESaIcEEEESt10_Select1stIS8_ESt4lessImESaIS8_EE17_M_construct_nodeIJS8_EEEvPSt13_Rb_tree_nodeIS8_EDpOT_:
.LFB3750:
	.cfi_startproc
	endbr64
	pushq	%rbp
	.cfi_def_cfa_offset 16
	.cfi_offset 6, -16
	movq	%rsp, %rbp
	.cfi_def_cfa_register 6
	pushq	%r12
	pushq	%rbx
	subq	$32, %rsp
	.cfi_offset 12, -24
	.cfi_offset 3, -32
	movq	%rdi, -24(%rbp)
	movq	%rsi, -32(%rbp)
	movq	%rdx, -40(%rbp)
	movq	-32(%rbp), %rax
	movq	%rax, %rsi
	movl	$72, %edi
	call	_ZnwmPv
	movq	-40(%rbp), %rax
	movq	%rax, %rdi
	call	_ZSt7forwardISt4pairIKmNSt7__cxx1112basic_stringIcSt11char_traitsIcESaIcEEEEEOT_RNSt16remove_referenceIS9_E4typeE
	movq	%rax, %r12
	movq	-32(%rbp), %rax
	movq	%rax, %rdi
	call	_ZNSt13_Rb_tree_nodeISt4pairIKmNSt7__cxx1112basic_stringIcSt11char_traitsIcESaIcEEEEE9_M_valptrEv
	movq	%rax, %rbx
	movq	-24(%rbp), %rax
	movq	%rax, %rdi
	call	_ZNSt8_Rb_treeImSt4pairIKmNSt7__cxx1112basic_stringIcSt11char_traitsIcESaIcEEEESt10_Select1stIS8_ESt4lessImESaIS8_EE21_M_get_Node_allocatorEv
	movq	%r12, %rdx
	movq	%rbx, %rsi
	movq	%rax, %rdi
	call	_ZNSt16allocator_traitsISaISt13_Rb_tree_nodeISt4pairIKmNSt7__cxx1112basic_stringIcSt11char_traitsIcESaIcEEEEEEE9constructIS9_JS9_EEEvRSB_PT_DpOT0_
	nop
	addq	$32, %rsp
	popq	%rbx
	popq	%r12
	popq	%rbp
	.cfi_def_cfa 7, 8
	ret
	.cfi_endproc
.LFE3750:
	.size	_ZNSt8_Rb_treeImSt4pairIKmNSt7__cxx1112basic_stringIcSt11char_traitsIcESaIcEEEESt10_Select1stIS8_ESt4lessImESaIS8_EE17_M_construct_nodeIJS8_EEEvPSt13_Rb_tree_nodeIS8_EDpOT_, .-_ZNSt8_Rb_treeImSt4pairIKmNSt7__cxx1112basic_stringIcSt11char_traitsIcESaIcEEEESt10_Select1stIS8_ESt4lessImESaIS8_EE17_M_construct_nodeIJS8_EEEvPSt13_Rb_tree_nodeIS8_EDpOT_
	.section	.text._ZNSt4pairIKmNSt7__cxx1112basic_stringIcSt11char_traitsIcESaIcEEEEC2ImS6_Lb1EEEOS_IT_T0_E,"axG",@progbits,_ZNSt4pairIKmNSt7__cxx1112basic_stringIcSt11char_traitsIcESaIcEEEEC5ImS6_Lb1EEEOS_IT_T0_E,comdat
	.align 2
	.weak	_ZNSt4pairIKmNSt7__cxx1112basic_stringIcSt11char_traitsIcESaIcEEEEC2ImS6_Lb1EEEOS_IT_T0_E
	.type	_ZNSt4pairIKmNSt7__cxx1112basic_stringIcSt11char_traitsIcESaIcEEEEC2ImS6_Lb1EEEOS_IT_T0_E, @function
_ZNSt4pairIKmNSt7__cxx1112basic_stringIcSt11char_traitsIcESaIcEEEEC2ImS6_Lb1EEEOS_IT_T0_E:
.LFB3763:
	.cfi_startproc
	endbr64
	pushq	%rbp
	.cfi_def_cfa_offset 16
	.cfi_offset 6, -16
	movq	%rsp, %rbp
	.cfi_def_cfa_register 6
	pushq	%rbx
	subq	$24, %rsp
	.cfi_offset 3, -24
	movq	%rdi, -24(%rbp)
	movq	%rsi, -32(%rbp)
	movq	-32(%rbp), %rax
	movq	%rax, %rdi
	call	_ZSt7forwardImEOT_RNSt16remove_referenceIS0_E4typeE
	movq	(%rax), %rdx
	movq	-24(%rbp), %rax
	movq	%rdx, (%rax)
	movq	-24(%rbp), %rax
	leaq	8(%rax), %rbx
	movq	-32(%rbp), %rax
	addq	$8, %rax
	movq	%rax, %rdi
	call	_ZSt7forwardINSt7__cxx1112basic_stringIcSt11char_traitsIcESaIcEEEEOT_RNSt16remove_referenceIS6_E4typeE
	movq	%rax, %rsi
	movq	%rbx, %rdi
	call	_ZNSt7__cxx1112basic_stringIcSt11char_traitsIcESaIcEEC1EOS4_@PLT
	nop
	movq	-8(%rbp), %rbx
	leave
	.cfi_def_cfa 7, 8
	ret
	.cfi_endproc
.LFE3763:
	.size	_ZNSt4pairIKmNSt7__cxx1112basic_stringIcSt11char_traitsIcESaIcEEEEC2ImS6_Lb1EEEOS_IT_T0_E, .-_ZNSt4pairIKmNSt7__cxx1112basic_stringIcSt11char_traitsIcESaIcEEEEC2ImS6_Lb1EEEOS_IT_T0_E
	.weak	_ZNSt4pairIKmNSt7__cxx1112basic_stringIcSt11char_traitsIcESaIcEEEEC1ImS6_Lb1EEEOS_IT_T0_E
	.set	_ZNSt4pairIKmNSt7__cxx1112basic_stringIcSt11char_traitsIcESaIcEEEEC1ImS6_Lb1EEEOS_IT_T0_E,_ZNSt4pairIKmNSt7__cxx1112basic_stringIcSt11char_traitsIcESaIcEEEEC2ImS6_Lb1EEEOS_IT_T0_E
	.section	.text._ZNSt16allocator_traitsISaISt13_Rb_tree_nodeISt4pairIKmNSt7__cxx1112basic_stringIcSt11char_traitsIcESaIcEEEEEEE9constructIS9_JS9_EEEvRSB_PT_DpOT0_,"axG",@progbits,_ZNSt16allocator_traitsISaISt13_Rb_tree_nodeISt4pairIKmNSt7__cxx1112basic_stringIcSt11char_traitsIcESaIcEEEEEEE9constructIS9_JS9_EEEvRSB_PT_DpOT0_,comdat
	.weak	_ZNSt16allocator_traitsISaISt13_Rb_tree_nodeISt4pairIKmNSt7__cxx1112basic_stringIcSt11char_traitsIcESaIcEEEEEEE9constructIS9_JS9_EEEvRSB_PT_DpOT0_
	.type	_ZNSt16allocator_traitsISaISt13_Rb_tree_nodeISt4pairIKmNSt7__cxx1112basic_stringIcSt11char_traitsIcESaIcEEEEEEE9constructIS9_JS9_EEEvRSB_PT_DpOT0_, @function
_ZNSt16allocator_traitsISaISt13_Rb_tree_nodeISt4pairIKmNSt7__cxx1112basic_stringIcSt11char_traitsIcESaIcEEEEEEE9constructIS9_JS9_EEEvRSB_PT_DpOT0_:
.LFB3765:
	.cfi_startproc
	endbr64
	pushq	%rbp
	.cfi_def_cfa_offset 16
	.cfi_offset 6, -16
	movq	%rsp, %rbp
	.cfi_def_cfa_register 6
	subq	$32, %rsp
	movq	%rdi, -8(%rbp)
	movq	%rsi, -16(%rbp)
	movq	%rdx, -24(%rbp)
	movq	-24(%rbp), %rax
	movq	%rax, %rdi
	call	_ZSt7forwardISt4pairIKmNSt7__cxx1112basic_stringIcSt11char_traitsIcESaIcEEEEEOT_RNSt16remove_referenceIS9_E4typeE
	movq	%rax, %rdx
	movq	-16(%rbp), %rcx
	movq	-8(%rbp), %rax
	movq	%rcx, %rsi
	movq	%rax, %rdi
	call	_ZN9__gnu_cxx13new_allocatorISt13_Rb_tree_nodeISt4pairIKmNSt7__cxx1112basic_stringIcSt11char_traitsIcESaIcEEEEEE9constructISA_JSA_EEEvPT_DpOT0_
	nop
	leave
	.cfi_def_cfa 7, 8
	ret
	.cfi_endproc
.LFE3765:
	.size	_ZNSt16allocator_traitsISaISt13_Rb_tree_nodeISt4pairIKmNSt7__cxx1112basic_stringIcSt11char_traitsIcESaIcEEEEEEE9constructIS9_JS9_EEEvRSB_PT_DpOT0_, .-_ZNSt16allocator_traitsISaISt13_Rb_tree_nodeISt4pairIKmNSt7__cxx1112basic_stringIcSt11char_traitsIcESaIcEEEEEEE9constructIS9_JS9_EEEvRSB_PT_DpOT0_
	.section	.text._ZSt7forwardImEOT_RNSt16remove_referenceIS0_E4typeE,"axG",@progbits,_ZSt7forwardImEOT_RNSt16remove_referenceIS0_E4typeE,comdat
	.weak	_ZSt7forwardImEOT_RNSt16remove_referenceIS0_E4typeE
	.type	_ZSt7forwardImEOT_RNSt16remove_referenceIS0_E4typeE, @function
_ZSt7forwardImEOT_RNSt16remove_referenceIS0_E4typeE:
.LFB3768:
	.cfi_startproc
	endbr64
	pushq	%rbp
	.cfi_def_cfa_offset 16
	.cfi_offset 6, -16
	movq	%rsp, %rbp
	.cfi_def_cfa_register 6
	movq	%rdi, -8(%rbp)
	movq	-8(%rbp), %rax
	popq	%rbp
	.cfi_def_cfa 7, 8
	ret
	.cfi_endproc
.LFE3768:
	.size	_ZSt7forwardImEOT_RNSt16remove_referenceIS0_E4typeE, .-_ZSt7forwardImEOT_RNSt16remove_referenceIS0_E4typeE
	.section	.text._ZSt7forwardINSt7__cxx1112basic_stringIcSt11char_traitsIcESaIcEEEEOT_RNSt16remove_referenceIS6_E4typeE,"axG",@progbits,_ZSt7forwardINSt7__cxx1112basic_stringIcSt11char_traitsIcESaIcEEEEOT_RNSt16remove_referenceIS6_E4typeE,comdat
	.weak	_ZSt7forwardINSt7__cxx1112basic_stringIcSt11char_traitsIcESaIcEEEEOT_RNSt16remove_referenceIS6_E4typeE
	.type	_ZSt7forwardINSt7__cxx1112basic_stringIcSt11char_traitsIcESaIcEEEEOT_RNSt16remove_referenceIS6_E4typeE, @function
_ZSt7forwardINSt7__cxx1112basic_stringIcSt11char_traitsIcESaIcEEEEOT_RNSt16remove_referenceIS6_E4typeE:
.LFB3769:
	.cfi_startproc
	endbr64
	pushq	%rbp
	.cfi_def_cfa_offset 16
	.cfi_offset 6, -16
	movq	%rsp, %rbp
	.cfi_def_cfa_register 6
	movq	%rdi, -8(%rbp)
	movq	-8(%rbp), %rax
	popq	%rbp
	.cfi_def_cfa 7, 8
	ret
	.cfi_endproc
.LFE3769:
	.size	_ZSt7forwardINSt7__cxx1112basic_stringIcSt11char_traitsIcESaIcEEEEOT_RNSt16remove_referenceIS6_E4typeE, .-_ZSt7forwardINSt7__cxx1112basic_stringIcSt11char_traitsIcESaIcEEEEOT_RNSt16remove_referenceIS6_E4typeE
	.section	.text._ZNSt4pairIKmNSt7__cxx1112basic_stringIcSt11char_traitsIcESaIcEEEEC2EOS7_,"axG",@progbits,_ZNSt4pairIKmNSt7__cxx1112basic_stringIcSt11char_traitsIcESaIcEEEEC5EOS7_,comdat
	.align 2
	.weak	_ZNSt4pairIKmNSt7__cxx1112basic_stringIcSt11char_traitsIcESaIcEEEEC2EOS7_
	.type	_ZNSt4pairIKmNSt7__cxx1112basic_stringIcSt11char_traitsIcESaIcEEEEC2EOS7_, @function
_ZNSt4pairIKmNSt7__cxx1112basic_stringIcSt11char_traitsIcESaIcEEEEC2EOS7_:
.LFB3772:
	.cfi_startproc
	endbr64
	pushq	%rbp
	.cfi_def_cfa_offset 16
	.cfi_offset 6, -16
	movq	%rsp, %rbp
	.cfi_def_cfa_register 6
	subq	$16, %rsp
	movq	%rdi, -8(%rbp)
	movq	%rsi, -16(%rbp)
	movq	-16(%rbp), %rax
	movq	(%rax), %rdx
	movq	-8(%rbp), %rax
	movq	%rdx, (%rax)
	movq	-8(%rbp), %rax
	addq	$8, %rax
	movq	-16(%rbp), %rdx
	addq	$8, %rdx
	movq	%rdx, %rsi
	movq	%rax, %rdi
	call	_ZNSt7__cxx1112basic_stringIcSt11char_traitsIcESaIcEEC1EOS4_@PLT
	nop
	leave
	.cfi_def_cfa 7, 8
	ret
	.cfi_endproc
.LFE3772:
	.size	_ZNSt4pairIKmNSt7__cxx1112basic_stringIcSt11char_traitsIcESaIcEEEEC2EOS7_, .-_ZNSt4pairIKmNSt7__cxx1112basic_stringIcSt11char_traitsIcESaIcEEEEC2EOS7_
	.weak	_ZNSt4pairIKmNSt7__cxx1112basic_stringIcSt11char_traitsIcESaIcEEEEC1EOS7_
	.set	_ZNSt4pairIKmNSt7__cxx1112basic_stringIcSt11char_traitsIcESaIcEEEEC1EOS7_,_ZNSt4pairIKmNSt7__cxx1112basic_stringIcSt11char_traitsIcESaIcEEEEC2EOS7_
	.section	.text._ZN9__gnu_cxx13new_allocatorISt13_Rb_tree_nodeISt4pairIKmNSt7__cxx1112basic_stringIcSt11char_traitsIcESaIcEEEEEE9constructISA_JSA_EEEvPT_DpOT0_,"axG",@progbits,_ZN9__gnu_cxx13new_allocatorISt13_Rb_tree_nodeISt4pairIKmNSt7__cxx1112basic_stringIcSt11char_traitsIcESaIcEEEEEE9constructISA_JSA_EEEvPT_DpOT0_,comdat
	.align 2
	.weak	_ZN9__gnu_cxx13new_allocatorISt13_Rb_tree_nodeISt4pairIKmNSt7__cxx1112basic_stringIcSt11char_traitsIcESaIcEEEEEE9constructISA_JSA_EEEvPT_DpOT0_
	.type	_ZN9__gnu_cxx13new_allocatorISt13_Rb_tree_nodeISt4pairIKmNSt7__cxx1112basic_stringIcSt11char_traitsIcESaIcEEEEEE9constructISA_JSA_EEEvPT_DpOT0_, @function
_ZN9__gnu_cxx13new_allocatorISt13_Rb_tree_nodeISt4pairIKmNSt7__cxx1112basic_stringIcSt11char_traitsIcESaIcEEEEEE9constructISA_JSA_EEEvPT_DpOT0_:
.LFB3770:
	.cfi_startproc
	endbr64
	pushq	%rbp
	.cfi_def_cfa_offset 16
	.cfi_offset 6, -16
	movq	%rsp, %rbp
	.cfi_def_cfa_register 6
	pushq	%rbx
	subq	$40, %rsp
	.cfi_offset 3, -24
	movq	%rdi, -24(%rbp)
	movq	%rsi, -32(%rbp)
	movq	%rdx, -40(%rbp)
	movq	-40(%rbp), %rax
	movq	%rax, %rdi
	call	_ZSt7forwardISt4pairIKmNSt7__cxx1112basic_stringIcSt11char_traitsIcESaIcEEEEEOT_RNSt16remove_referenceIS9_E4typeE
	movq	%rax, %rbx
	movq	-32(%rbp), %rax
	movq	%rax, %rsi
	movl	$40, %edi
	call	_ZnwmPv
	movq	%rbx, %rsi
	movq	%rax, %rdi
	call	_ZNSt4pairIKmNSt7__cxx1112basic_stringIcSt11char_traitsIcESaIcEEEEC1EOS7_
	nop
	movq	-8(%rbp), %rbx
	leave
	.cfi_def_cfa 7, 8
	ret
	.cfi_endproc
.LFE3770:
	.size	_ZN9__gnu_cxx13new_allocatorISt13_Rb_tree_nodeISt4pairIKmNSt7__cxx1112basic_stringIcSt11char_traitsIcESaIcEEEEEE9constructISA_JSA_EEEvPT_DpOT0_, .-_ZN9__gnu_cxx13new_allocatorISt13_Rb_tree_nodeISt4pairIKmNSt7__cxx1112basic_stringIcSt11char_traitsIcESaIcEEEEEE9constructISA_JSA_EEEvPT_DpOT0_
	.text
	.type	_Z41__static_initialization_and_destruction_0ii, @function
_Z41__static_initialization_and_destruction_0ii:
.LFB3774:
	.cfi_startproc
	endbr64
	pushq	%rbp
	.cfi_def_cfa_offset 16
	.cfi_offset 6, -16
	movq	%rsp, %rbp
	.cfi_def_cfa_register 6
	subq	$16, %rsp
	movl	%edi, -4(%rbp)
	movl	%esi, -8(%rbp)
	cmpl	$1, -4(%rbp)
	jne	.L246
	cmpl	$65535, -8(%rbp)
	jne	.L246
	leaq	_ZStL8__ioinit(%rip), %rax
	movq	%rax, %rdi
	call	_ZNSt8ios_base4InitC1Ev@PLT
	leaq	__dso_handle(%rip), %rax
	movq	%rax, %rdx
	leaq	_ZStL8__ioinit(%rip), %rax
	movq	%rax, %rsi
	movq	_ZNSt8ios_base4InitD1Ev@GOTPCREL(%rip), %rax
	movq	%rax, %rdi
	call	__cxa_atexit@PLT
.L246:
	nop
	leave
	.cfi_def_cfa 7, 8
	ret
	.cfi_endproc
.LFE3774:
	.size	_Z41__static_initialization_and_destruction_0ii, .-_Z41__static_initialization_and_destruction_0ii
	.type	_GLOBAL__sub_I__ZN11Reassembler6insertEmNSt7__cxx1112basic_stringIcSt11char_traitsIcESaIcEEEbR6Writer, @function
_GLOBAL__sub_I__ZN11Reassembler6insertEmNSt7__cxx1112basic_stringIcSt11char_traitsIcESaIcEEEbR6Writer:
.LFB3775:
	.cfi_startproc
	endbr64
	pushq	%rbp
	.cfi_def_cfa_offset 16
	.cfi_offset 6, -16
	movq	%rsp, %rbp
	.cfi_def_cfa_register 6
	movl	$65535, %esi
	movl	$1, %edi
	call	_Z41__static_initialization_and_destruction_0ii
	popq	%rbp
	.cfi_def_cfa 7, 8
	ret
	.cfi_endproc
.LFE3775:
	.size	_GLOBAL__sub_I__ZN11Reassembler6insertEmNSt7__cxx1112basic_stringIcSt11char_traitsIcESaIcEEEbR6Writer, .-_GLOBAL__sub_I__ZN11Reassembler6insertEmNSt7__cxx1112basic_stringIcSt11char_traitsIcESaIcEEEbR6Writer
	.section	.init_array,"aw"
	.align 8
	.quad	_GLOBAL__sub_I__ZN11Reassembler6insertEmNSt7__cxx1112basic_stringIcSt11char_traitsIcESaIcEEEbR6Writer
	.hidden	DW.ref.__gxx_personality_v0
	.weak	DW.ref.__gxx_personality_v0
	.section	.data.rel.local.DW.ref.__gxx_personality_v0,"awG",@progbits,DW.ref.__gxx_personality_v0,comdat
	.align 8
	.type	DW.ref.__gxx_personality_v0, @object
	.size	DW.ref.__gxx_personality_v0, 8
DW.ref.__gxx_personality_v0:
	.quad	__gxx_personality_v0
	.hidden	__dso_handle
	.ident	"GCC: (Ubuntu 11.3.0-1ubuntu1~22.04.1) 11.3.0"
	.section	.note.GNU-stack,"",@progbits
	.section	.note.gnu.property,"a"
	.align 8
	.long	1f - 0f
	.long	4f - 1f
	.long	5
0:
	.string	"GNU"
1:
	.align 8
	.long	0xc0000002
	.long	3f - 2f
2:
	.long	0x3
3:
	.align 8
4:
